ARM GAS  C:\Users\bolob\AppData\Local\Temp\cc2W5SZg.s 			page 1


   1              		.syntax unified
   2              		.cpu cortex-m3
   3              		.fpu softvfp
   4              		.eabi_attribute 20, 1
   5              		.eabi_attribute 21, 1
   6              		.eabi_attribute 23, 3
   7              		.eabi_attribute 24, 1
   8              		.eabi_attribute 25, 1
   9              		.eabi_attribute 26, 1
  10              		.eabi_attribute 30, 1
  11              		.eabi_attribute 34, 1
  12              		.eabi_attribute 18, 4
  13              		.thumb
  14              		.syntax unified
  15              		.file	"clock_widget.c"
  16              		.text
  17              	.Ltext0:
  18              		.cfi_sections	.debug_frame
  19              		.section	.text.CLOCK__incrementWidget,"ax",%progbits
  20              		.align	2
  21              		.global	CLOCK__incrementWidget
  22              		.thumb
  23              		.thumb_func
  24              		.type	CLOCK__incrementWidget, %function
  25              	CLOCK__incrementWidget:
  26              	.LFB134:
  27              		.file 1 "clock_widget.c"
   1:clock_widget.c **** /* ========================================
   2:clock_widget.c ****  *
   3:clock_widget.c ****  * Copyright YOUR COMPANY, THE YEAR
   4:clock_widget.c ****  * All Rights Reserved
   5:clock_widget.c ****  * UNPUBLISHED, LICENSED SOFTWARE.
   6:clock_widget.c ****  *
   7:clock_widget.c ****  * CONFIDENTIAL AND PROPRIETARY INFORMATION
   8:clock_widget.c ****  * WHICH IS THE PROPERTY OF your company.
   9:clock_widget.c ****  *
  10:clock_widget.c ****  * ========================================
  11:clock_widget.c **** */
  12:clock_widget.c **** #include "clock_widget.h"
  13:clock_widget.c **** 
  14:clock_widget.c **** static ClockWidgetInstance* currentWidgetContext = NULL;
  15:clock_widget.c **** 
  16:clock_widget.c **** // =================================== Widget ===================================
  17:clock_widget.c **** 
  18:clock_widget.c **** ClockWidgetInstance CLOCK_hours = {
  19:clock_widget.c ****     .state = CLOCK_W_ISFOCUS,
  20:clock_widget.c ****     .valuePtr = &g_hours,
  21:clock_widget.c ****     .maxValue = 24,
  22:clock_widget.c ****     .type = WIDGET_HOUR
  23:clock_widget.c **** };
  24:clock_widget.c **** 
  25:clock_widget.c **** ClockWidgetInstance CLOCK_minutes = {
  26:clock_widget.c ****     .state = CLOCK_W_ISFOCUS,
  27:clock_widget.c ****     .valuePtr = &g_minutes,
  28:clock_widget.c ****     .maxValue = 60,
  29:clock_widget.c ****     .type = WIDGET_MINUTE
  30:clock_widget.c **** };
ARM GAS  C:\Users\bolob\AppData\Local\Temp\cc2W5SZg.s 			page 2


  31:clock_widget.c **** 
  32:clock_widget.c **** /**
  33:clock_widget.c **** * Wird dieser zustand benötigt?
  34:clock_widget.c **** * Initialzustand: Focus dann Autoinc
  35:clock_widget.c **** */
  36:clock_widget.c **** /** ==== CLOCK_W_ISDISPLAYING ===== */
  37:clock_widget.c **** const STATE_stateInnerTransitionTable_t STATE_CLOCK_W_ISDISPLAYING_Transitions[] = {
  38:clock_widget.c **** /*    Event                     ToState                Guard    Action                   */
  39:clock_widget.c ****     { EV_KEYLEFT,               CLOCK_W_ISFOCUS,       0,       CLOCK__updateTime }
  40:clock_widget.c **** };
  41:clock_widget.c **** 
  42:clock_widget.c **** /** ==== CLOCK_W_ISFOCUS ===== */
  43:clock_widget.c **** const STATE_stateInnerTransitionTable_t STATE_CLOCK_W_ISFOCUS_Transitions[] = {
  44:clock_widget.c **** /*    Event                     ToState                Guard    Action                   */
  45:clock_widget.c ****     { EV_KEYRIGHT,              CLOCK_W_ISFOCUS,       0,       CLOCK__incrementWidget },
  46:clock_widget.c ****     { EV_KEYRIGHTLONGPRESS,     CLOCK_W_ISAUTOINCREMENT, 0,     0 },
  47:clock_widget.c ****     { EV_KEYLEFT,               CLOCK_W_ISFOCUS,        0,      CLOCK__setDisplayFonts }
  48:clock_widget.c **** };
  49:clock_widget.c **** 
  50:clock_widget.c **** /** ==== CLOCK_W_ISAUTOINCREMENT ===== */
  51:clock_widget.c **** const STATE_stateInnerTransitionTable_t STATE_CLOCK_W_ISAUTOINCREMENT_Transitions[] = {
  52:clock_widget.c **** /*    Event                     ToState                Guard    Action                   */
  53:clock_widget.c ****     { EV_KEYRIGHT,              CLOCK_W_ISFOCUS,        0,      CLOCK__incrementWidget },
  54:clock_widget.c ****     { EV_KEYLEFT,               CLOCK_W_ISFOCUS,        0,      CLOCK__setDisplayFonts }, // go bac
  55:clock_widget.c ****     { EV_250MS,                 CLOCK_W_ISAUTOINCREMENT,0,      CLOCK__incrementWidget }
  56:clock_widget.c **** };
  57:clock_widget.c **** 
  58:clock_widget.c **** // =============== Outer Table ===============
  59:clock_widget.c **** 
  60:clock_widget.c **** const STATE_stateOuterTransitionTable_t CLOCK_Widget_Transitions[] = {
  61:clock_widget.c ****     { CLOCK_W_ISFOCUS,      STATE_CLOCK_W_ISFOCUS_Transitions, sizeof(STATE_CLOCK_W_ISFOCUS_Transit
  62:clock_widget.c ****     { CLOCK_W_ISAUTOINCREMENT,   STATE_CLOCK_W_ISAUTOINCREMENT_Transitions, sizeof(STATE_CLOCK_W_IS
  63:clock_widget.c **** };
  64:clock_widget.c **** 
  65:clock_widget.c **** const uint16_t CLOCK_Widget_Transitions_Size = sizeof(CLOCK_Widget_Transitions)/sizeof(STATE_stateO
  66:clock_widget.c **** 
  67:clock_widget.c **** void WIDGET__processEvent(ClockWidgetInstance* widget, EVENT_enum_t event) {
  68:clock_widget.c ****     currentWidgetContext = widget;  // Kontext setzen
  69:clock_widget.c **** 
  70:clock_widget.c ****     for (uint8_t i = 0; i < CLOCK_Widget_Transitions_Size; ++i) {
  71:clock_widget.c ****         if (CLOCK_Widget_Transitions[i].currentState == widget->state) {
  72:clock_widget.c ****             const STATE_stateInnerTransitionTable_t* table = CLOCK_Widget_Transitions[i].transition
  73:clock_widget.c ****             uint16_t size = CLOCK_Widget_Transitions[i].tableSize;
  74:clock_widget.c **** 
  75:clock_widget.c ****             for (uint16_t j = 0; j < size; ++j) {
  76:clock_widget.c ****                 if (table[j].event == event && (!table[j].guard || table[j].guard())) {
  77:clock_widget.c ****                     if (table[j].action) {
  78:clock_widget.c ****                         table[j].action();  // Zugriff über globalen Kontext möglich
  79:clock_widget.c ****                     }
  80:clock_widget.c ****                     widget->state = table[j].nextState;
  81:clock_widget.c ****                     return;
  82:clock_widget.c ****                 }
  83:clock_widget.c ****             }
  84:clock_widget.c ****         }
  85:clock_widget.c ****     }
  86:clock_widget.c **** 
  87:clock_widget.c ****     // reset the current context
ARM GAS  C:\Users\bolob\AppData\Local\Temp\cc2W5SZg.s 			page 3


  88:clock_widget.c ****     currentWidgetContext = NULL; 
  89:clock_widget.c **** }
  90:clock_widget.c **** 
  91:clock_widget.c **** 
  92:clock_widget.c **** void CLOCK__incrementWidget() {
  28              		.loc 1 92 0
  29              		.cfi_startproc
  30              		@ args = 0, pretend = 0, frame = 0
  31              		@ frame_needed = 0, uses_anonymous_args = 0
  32              		@ link register save eliminated.
  93:clock_widget.c ****     if (currentWidgetContext == NULL || currentWidgetContext->valuePtr == NULL)
  33              		.loc 1 93 0
  34 0000 074B     		ldr	r3, .L3
  35 0002 1B68     		ldr	r3, [r3]
  36 0004 5BB1     		cbz	r3, .L1
  37              		.loc 1 93 0 is_stmt 0 discriminator 1
  38 0006 5A68     		ldr	r2, [r3, #4]
  39 0008 4AB1     		cbz	r2, .L1
  94:clock_widget.c ****         return;
  95:clock_widget.c **** 
  96:clock_widget.c ****     // Increase the value of the widget
  97:clock_widget.c ****     (*currentWidgetContext->valuePtr)++;
  40              		.loc 1 97 0 is_stmt 1
  41 000a 1178     		ldrb	r1, [r2]	@ zero_extendqisi2
  42 000c 0131     		adds	r1, r1, #1
  43 000e 1170     		strb	r1, [r2]
  98:clock_widget.c ****     
  99:clock_widget.c ****     //
 100:clock_widget.c ****     if (*currentWidgetContext->valuePtr >= currentWidgetContext->maxValue) {
  44              		.loc 1 100 0
  45 0010 5A68     		ldr	r2, [r3, #4]
  46 0012 1178     		ldrb	r1, [r2]	@ zero_extendqisi2
  47 0014 1B7A     		ldrb	r3, [r3, #8]	@ zero_extendqisi2
  48 0016 9942     		cmp	r1, r3
  49 0018 01D3     		bcc	.L1
 101:clock_widget.c ****         *currentWidgetContext->valuePtr = 0;
  50              		.loc 1 101 0
  51 001a 0023     		movs	r3, #0
  52 001c 1370     		strb	r3, [r2]
  53              	.L1:
  54 001e 7047     		bx	lr
  55              	.L4:
  56              		.align	2
  57              	.L3:
  58 0020 00000000 		.word	.LANCHOR0
  59              		.cfi_endproc
  60              	.LFE134:
  61              		.size	CLOCK__incrementWidget, .-CLOCK__incrementWidget
  62              		.section	.text.CLOCK__updateTime,"ax",%progbits
  63              		.align	2
  64              		.global	CLOCK__updateTime
  65              		.thumb
  66              		.thumb_func
  67              		.type	CLOCK__updateTime, %function
  68              	CLOCK__updateTime:
  69              	.LFB137:
 102:clock_widget.c ****     }
ARM GAS  C:\Users\bolob\AppData\Local\Temp\cc2W5SZg.s 			page 4


 103:clock_widget.c **** }
 104:clock_widget.c **** 
 105:clock_widget.c **** // Probably not necessary....
 106:clock_widget.c **** void CLOCK__incrementHours(){
 107:clock_widget.c ****         // currently a dummy
 108:clock_widget.c **** }
 109:clock_widget.c **** void CLOCK__incrementMinutes(){
 110:clock_widget.c ****         // currently a dummy
 111:clock_widget.c **** }
 112:clock_widget.c **** // is done in the display runnable, probably not needed
 113:clock_widget.c **** void CLOCK__updateTime(){
  70              		.loc 1 113 0
  71              		.cfi_startproc
  72              		@ args = 0, pretend = 0, frame = 0
  73              		@ frame_needed = 0, uses_anonymous_args = 0
  74              		@ link register save eliminated.
  75 0000 7047     		bx	lr
  76              		.cfi_endproc
  77              	.LFE137:
  78              		.size	CLOCK__updateTime, .-CLOCK__updateTime
  79 0002 00BF     		.section	.text.CLOCK__setDisplayFonts,"ax",%progbits
  80              		.align	2
  81              		.global	CLOCK__setDisplayFonts
  82              		.thumb
  83              		.thumb_func
  84              		.type	CLOCK__setDisplayFonts, %function
  85              	CLOCK__setDisplayFonts:
  86              	.LFB139:
 114:clock_widget.c ****     // currently a dummy
 115:clock_widget.c **** }
 116:clock_widget.c **** void CLOCK__updateDisplay(){
 117:clock_widget.c ****         // currently a dummy
 118:clock_widget.c **** }
 119:clock_widget.c **** 
 120:clock_widget.c **** void CLOCK__setDisplayFonts(){
  87              		.loc 1 120 0
  88              		.cfi_startproc
  89              		@ args = 0, pretend = 0, frame = 16
  90              		@ frame_needed = 0, uses_anonymous_args = 0
  91              		.loc 1 120 0
  92 0000 30B5     		push	{r4, r5, lr}
  93              		.cfi_def_cfa_offset 12
  94              		.cfi_offset 4, -12
  95              		.cfi_offset 5, -8
  96              		.cfi_offset 14, -4
  97 0002 85B0     		sub	sp, sp, #20
  98              		.cfi_def_cfa_offset 32
  99              	.LVL0:
 100              	.LBB7:
 101              	.LBB8:
 102              		.file 2 ".\\source\\rte/sc_displaydata.h"
   1:.\source\rte/sc_displaydata.h **** 
   2:.\source\rte/sc_displaydata.h **** 
   3:.\source\rte/sc_displaydata.h **** /**
   4:.\source\rte/sc_displaydata.h ****  *  file    SC_DISPLAYDATA_signal.h
   5:.\source\rte/sc_displaydata.h ****  *
   6:.\source\rte/sc_displaydata.h ****  *  brief   signal base class for signal sc_displaydata
ARM GAS  C:\Users\bolob\AppData\Local\Temp\cc2W5SZg.s 			page 5


   7:.\source\rte/sc_displaydata.h ****  *
   8:.\source\rte/sc_displaydata.h ****  *  author  Autogenerated, Peter Fromm       <peter.fromm@h-da.de>
   9:.\source\rte/sc_displaydata.h ****  *
  10:.\source\rte/sc_displaydata.h ****  * description: Signalclass
  11:.\source\rte/sc_displaydata.h ****  * name: sc_displayData
  12:.\source\rte/sc_displaydata.h ****  * shortname: displayData
  13:.\source\rte/sc_displaydata.h ****  *
  14:.\source\rte/sc_displaydata.h ****  */
  15:.\source\rte/sc_displaydata.h **** 
  16:.\source\rte/sc_displaydata.h **** 
  17:.\source\rte/sc_displaydata.h **** 
  18:.\source\rte/sc_displaydata.h **** #ifndef SC_DISPLAYDATA_SIGNAL_H_INCLUDED
  19:.\source\rte/sc_displaydata.h **** #define SC_DISPLAYDATA_SIGNAL_H_INCLUDED
  20:.\source\rte/sc_displaydata.h **** 
  21:.\source\rte/sc_displaydata.h **** /*================================================[ public includes  ]=============================
  22:.\source\rte/sc_displaydata.h **** #include "global.h"
  23:.\source\rte/sc_displaydata.h **** #include "project.h"
  24:.\source\rte/sc_displaydata.h **** #include "rte.h"
  25:.\source\rte/sc_displaydata.h **** #include "rte_types.h"
  26:.\source\rte/sc_displaydata.h **** 
  27:.\source\rte/sc_displaydata.h **** #include "sc_displaydata_type.h"
  28:.\source\rte/sc_displaydata.h **** 
  29:.\source\rte/sc_displaydata.h **** 
  30:.\source\rte/sc_displaydata.h **** /**************************************************************************************************
  31:.\source\rte/sc_displaydata.h **** /* The driver API block																						*/
  32:.\source\rte/sc_displaydata.h **** /**************************************************************************************************
  33:.\source\rte/sc_displaydata.h ****                                                                                                    
  34:.\source\rte/sc_displaydata.h **** /**
  35:.\source\rte/sc_displaydata.h ****  *  Definition of function types for driver interfaces.
  36:.\source\rte/sc_displaydata.h ****  *  I-Port
  37:.\source\rte/sc_displaydata.h ****  */
  38:.\source\rte/sc_displaydata.h **** typedef RC_t (*SC_DISPLAYDATA_driverIn_t)(SC_DISPLAYDATA_data_t * const);
  39:.\source\rte/sc_displaydata.h **** 
  40:.\source\rte/sc_displaydata.h **** /**
  41:.\source\rte/sc_displaydata.h ****  *  Definition of function types for driver interfaces.
  42:.\source\rte/sc_displaydata.h ****  *  O-Port
  43:.\source\rte/sc_displaydata.h ****  */
  44:.\source\rte/sc_displaydata.h **** typedef RC_t (*SC_DISPLAYDATA_driverOut_t)( const SC_DISPLAYDATA_data_t * const);
  45:.\source\rte/sc_displaydata.h **** 
  46:.\source\rte/sc_displaydata.h **** 
  47:.\source\rte/sc_displaydata.h **** /**************************************************************************************************
  48:.\source\rte/sc_displaydata.h **** /* The signal configuration API block																				*/
  49:.\source\rte/sc_displaydata.h **** /**************************************************************************************************
  50:.\source\rte/sc_displaydata.h **** 
  51:.\source\rte/sc_displaydata.h **** /**
  52:.\source\rte/sc_displaydata.h ****  * Instances of the struct SC_DISPLAYDATA_cfg_t represent the signal object configuration.
  53:.\source\rte/sc_displaydata.h ****  */
  54:.\source\rte/sc_displaydata.h **** struct SC_DISPLAYDATA_cfg_s
  55:.\source\rte/sc_displaydata.h **** {
  56:.\source\rte/sc_displaydata.h ****     /**
  57:.\source\rte/sc_displaydata.h ****      * Function pointer to the input driver
  58:.\source\rte/sc_displaydata.h ****      */
  59:.\source\rte/sc_displaydata.h ****     SC_DISPLAYDATA_driverIn_t const inDriver;
  60:.\source\rte/sc_displaydata.h **** 
  61:.\source\rte/sc_displaydata.h ****     /**
  62:.\source\rte/sc_displaydata.h ****      * Function pointer to the output driver table
  63:.\source\rte/sc_displaydata.h ****      */
ARM GAS  C:\Users\bolob\AppData\Local\Temp\cc2W5SZg.s 			page 6


  64:.\source\rte/sc_displaydata.h ****    SC_DISPLAYDATA_driverOut_t const outDriver;
  65:.\source\rte/sc_displaydata.h ****    
  66:.\source\rte/sc_displaydata.h ****     /**
  67:.\source\rte/sc_displaydata.h ****      * Event onUpdate
  68:.\source\rte/sc_displaydata.h ****      */
  69:.\source\rte/sc_displaydata.h ****     EventMaskType const evOnUpdate;
  70:.\source\rte/sc_displaydata.h ****     
  71:.\source\rte/sc_displaydata.h ****     
  72:.\source\rte/sc_displaydata.h ****     /**
  73:.\source\rte/sc_displaydata.h ****      * Event onError
  74:.\source\rte/sc_displaydata.h ****      */
  75:.\source\rte/sc_displaydata.h ****     EventMaskType const evOnError;
  76:.\source\rte/sc_displaydata.h ****     
  77:.\source\rte/sc_displaydata.h ****     /**
  78:.\source\rte/sc_displaydata.h ****      * Task Count onUpdate
  79:.\source\rte/sc_displaydata.h ****      */
  80:.\source\rte/sc_displaydata.h ****     size_t const onUpdateTaskCount;
  81:.\source\rte/sc_displaydata.h **** 
  82:.\source\rte/sc_displaydata.h ****     /**
  83:.\source\rte/sc_displaydata.h ****      * Task List onUpdate
  84:.\source\rte/sc_displaydata.h ****      */
  85:.\source\rte/sc_displaydata.h ****     TaskTypeArray* const onUpdateTasks;
  86:.\source\rte/sc_displaydata.h ****     
  87:.\source\rte/sc_displaydata.h ****     /**
  88:.\source\rte/sc_displaydata.h ****      * Task Count onError
  89:.\source\rte/sc_displaydata.h ****      */
  90:.\source\rte/sc_displaydata.h ****     size_t const onErrorTaskCount;
  91:.\source\rte/sc_displaydata.h **** 
  92:.\source\rte/sc_displaydata.h ****     /**
  93:.\source\rte/sc_displaydata.h ****      * Task List onError
  94:.\source\rte/sc_displaydata.h ****      */
  95:.\source\rte/sc_displaydata.h ****     TaskTypeArray* const onErrorTasks;
  96:.\source\rte/sc_displaydata.h **** 	
  97:.\source\rte/sc_displaydata.h **** 	
  98:.\source\rte/sc_displaydata.h **** 	/**
  99:.\source\rte/sc_displaydata.h **** 	 * Ressourse is active? We need an additional boolean as a ressource value 0 is valid.
 100:.\source\rte/sc_displaydata.h **** 	 */
 101:.\source\rte/sc_displaydata.h **** 	 boolean_t const resourceActive;
 102:.\source\rte/sc_displaydata.h **** 	 
 103:.\source\rte/sc_displaydata.h **** 	/**
 104:.\source\rte/sc_displaydata.h **** 	 * Ressourse 
 105:.\source\rte/sc_displaydata.h **** 	 */
 106:.\source\rte/sc_displaydata.h **** 	 ResourceType const resource;
 107:.\source\rte/sc_displaydata.h **** 
 108:.\source\rte/sc_displaydata.h **** };                                                                                                 
 109:.\source\rte/sc_displaydata.h **** typedef const struct SC_DISPLAYDATA_cfg_s SC_DISPLAYDATA_cfg_t;
 110:.\source\rte/sc_displaydata.h ****                               
 111:.\source\rte/sc_displaydata.h **** /**************************************************************************************************
 112:.\source\rte/sc_displaydata.h **** /* The data interface block																							*/
 113:.\source\rte/sc_displaydata.h **** /**************************************************************************************************
 114:.\source\rte/sc_displaydata.h **** 
 115:.\source\rte/sc_displaydata.h ****                                                                                                    
 116:.\source\rte/sc_displaydata.h **** 							  
 117:.\source\rte/sc_displaydata.h **** /**
 118:.\source\rte/sc_displaydata.h ****  * Instances of the struct SC_DISPLAYDATA_t represent the signal objects.
 119:.\source\rte/sc_displaydata.h ****  * A signal object contains the current application value 'value' as well as relevant meta data.
 120:.\source\rte/sc_displaydata.h ****  */
ARM GAS  C:\Users\bolob\AppData\Local\Temp\cc2W5SZg.s 			page 7


 121:.\source\rte/sc_displaydata.h **** struct SC_DISPLAYDATA_s
 122:.\source\rte/sc_displaydata.h **** {                                                                                                  
 123:.\source\rte/sc_displaydata.h **** 
 124:.\source\rte/sc_displaydata.h **** 	/**
 125:.\source\rte/sc_displaydata.h **** 	 * Data buffer for the application value
 126:.\source\rte/sc_displaydata.h **** 	 */
 127:.\source\rte/sc_displaydata.h ****     SC_DISPLAYDATA_data_t value;
 128:.\source\rte/sc_displaydata.h **** 
 129:.\source\rte/sc_displaydata.h ****     /**
 130:.\source\rte/sc_displaydata.h ****      * Current signal status
 131:.\source\rte/sc_displaydata.h ****      */
 132:.\source\rte/sc_displaydata.h ****     RTE_signalStatus_t status;
 133:.\source\rte/sc_displaydata.h **** 
 134:.\source\rte/sc_displaydata.h ****     /**
 135:.\source\rte/sc_displaydata.h ****      * Current age of the signal (in calling cycles)
 136:.\source\rte/sc_displaydata.h ****      */
 137:.\source\rte/sc_displaydata.h ****     uint32_t age;
 138:.\source\rte/sc_displaydata.h **** 
 139:.\source\rte/sc_displaydata.h ****     /**
 140:.\source\rte/sc_displaydata.h ****      * Pointer to the signal configuration
 141:.\source\rte/sc_displaydata.h ****      */
 142:.\source\rte/sc_displaydata.h **** 	const SC_DISPLAYDATA_cfg_t * const    pSigCfg;
 143:.\source\rte/sc_displaydata.h **** 
 144:.\source\rte/sc_displaydata.h **** };                                                                                                 
 145:.\source\rte/sc_displaydata.h **** typedef struct SC_DISPLAYDATA_s SC_DISPLAYDATA_t;
 146:.\source\rte/sc_displaydata.h **** 
 147:.\source\rte/sc_displaydata.h **** /**************************************************************************************************
 148:.\source\rte/sc_displaydata.h **** /* Signal initialisation   																							*/
 149:.\source\rte/sc_displaydata.h **** /**************************************************************************************************
 150:.\source\rte/sc_displaydata.h **** 
 151:.\source\rte/sc_displaydata.h **** /**
 152:.\source\rte/sc_displaydata.h ****  * Initializes a signal instance with a passed init value.
 153:.\source\rte/sc_displaydata.h ****  * Depending on the configured conversion or scaling function the raw_value will be calculated.
 154:.\source\rte/sc_displaydata.h ****  * Signal status will change from RTE_SIGNALSTATUS_STARTUP to RTE_SIGNALSTATUS_INITIALIZED.
 155:.\source\rte/sc_displaydata.h ****  *
 156:.\source\rte/sc_displaydata.h ****  * @param  SC_DISPLAYDATA_t * const signal: Pointer to the signal object which will be initialised
 157:.\source\rte/sc_displaydata.h ****  * @return RC_t: standard return code, currently only RC_SUCCESS
 158:.\source\rte/sc_displaydata.h ****  *
 159:.\source\rte/sc_displaydata.h ****  **/
 160:.\source\rte/sc_displaydata.h **** inline RC_t RTE_SC_DISPLAYDATA_init( SC_DISPLAYDATA_t * const signal )
 161:.\source\rte/sc_displaydata.h **** {                                                                                                  
 162:.\source\rte/sc_displaydata.h **** 
 163:.\source\rte/sc_displaydata.h ****    RC_t ret = RC_SUCCESS;
 164:.\source\rte/sc_displaydata.h **** 
 165:.\source\rte/sc_displaydata.h ****    //Set value and raw value
 166:.\source\rte/sc_displaydata.h ****    signal->value  = SC_DISPLAYDATA_INIT_DATA;
 167:.\source\rte/sc_displaydata.h ****    signal->age    = 0;
 168:.\source\rte/sc_displaydata.h ****    signal->status = RTE_SIGNALSTATUS_INITIALIZED;
 169:.\source\rte/sc_displaydata.h **** 
 170:.\source\rte/sc_displaydata.h ****    return ret;
 171:.\source\rte/sc_displaydata.h **** }
 172:.\source\rte/sc_displaydata.h **** 
 173:.\source\rte/sc_displaydata.h **** /**************************************************************************************************
 174:.\source\rte/sc_displaydata.h **** /* Status and timeout control																						*/
 175:.\source\rte/sc_displaydata.h **** /**************************************************************************************************
 176:.\source\rte/sc_displaydata.h **** 
 177:.\source\rte/sc_displaydata.h **** /**
ARM GAS  C:\Users\bolob\AppData\Local\Temp\cc2W5SZg.s 			page 8


 178:.\source\rte/sc_displaydata.h ****  *  Returns the current signal status of the passed signal instance.
 179:.\source\rte/sc_displaydata.h ****  *
 180:.\source\rte/sc_displaydata.h ****  * @param  SC_DISPLAYDATA_t * const signal: Pointer to the signal object
 181:.\source\rte/sc_displaydata.h ****  * @return  sig_status_t: The current signal status
 182:.\source\rte/sc_displaydata.h ****  *
 183:.\source\rte/sc_displaydata.h ****  **/
 184:.\source\rte/sc_displaydata.h **** inline RTE_signalStatus_t RTE_SC_DISPLAYDATA_getStatus( const SC_DISPLAYDATA_t * const signal )
 185:.\source\rte/sc_displaydata.h **** {
 186:.\source\rte/sc_displaydata.h ****    return signal->status;
 187:.\source\rte/sc_displaydata.h **** }
 188:.\source\rte/sc_displaydata.h **** 
 189:.\source\rte/sc_displaydata.h **** 
 190:.\source\rte/sc_displaydata.h **** /**
 191:.\source\rte/sc_displaydata.h ****  *  Sets a new signal status of the passed signal instance by passing the new status.
 192:.\source\rte/sc_displaydata.h ****  *
 193:.\source\rte/sc_displaydata.h ****  * @param  SC_DISPLAYDATA_t * const signal: Pointer to the signal object
 194:.\source\rte/sc_displaydata.h ****  * @param  const sig_status_t status: New signal status
 195:.\source\rte/sc_displaydata.h ****  * @return RC_t: standard return code, currently only RC_SUCCESS
 196:.\source\rte/sc_displaydata.h ****  *
 197:.\source\rte/sc_displaydata.h ****  */
 198:.\source\rte/sc_displaydata.h **** inline RC_t RTE_SC_DISPLAYDATA_setStatus( SC_DISPLAYDATA_t * const signal, const RTE_signalStatus_t
 199:.\source\rte/sc_displaydata.h **** {
 200:.\source\rte/sc_displaydata.h ****    signal->status = status;
 201:.\source\rte/sc_displaydata.h ****    size_t taskNum=0;
 202:.\source\rte/sc_displaydata.h ****    
 203:.\source\rte/sc_displaydata.h ****    //Fire error events in case of invalid state
 204:.\source\rte/sc_displaydata.h ****    if (signal->status == RTE_SIGNALSTATUS_INVALID)
 205:.\source\rte/sc_displaydata.h ****    {
 206:.\source\rte/sc_displaydata.h **** 	    //Pointer to the Taskarray, containing the tasks receiving the onUpdate events
 207:.\source\rte/sc_displaydata.h **** 		TaskTypeArray* pTaskArray = signal->pSigCfg->onErrorTasks;
 208:.\source\rte/sc_displaydata.h **** 
 209:.\source\rte/sc_displaydata.h **** 		if (0 != signal->pSigCfg->evOnError && NULL != pTaskArray){
 210:.\source\rte/sc_displaydata.h **** 			for( taskNum=0 ; taskNum < signal->pSigCfg->onErrorTaskCount ;taskNum++){
 211:.\source\rte/sc_displaydata.h **** 				TaskType task = (*pTaskArray)[taskNum];
 212:.\source\rte/sc_displaydata.h **** 				SetEvent( task, signal->pSigCfg->evOnError);
 213:.\source\rte/sc_displaydata.h **** 			}
 214:.\source\rte/sc_displaydata.h **** 		}
 215:.\source\rte/sc_displaydata.h ****    }
 216:.\source\rte/sc_displaydata.h ****    
 217:.\source\rte/sc_displaydata.h ****    return RC_SUCCESS;
 218:.\source\rte/sc_displaydata.h **** }
 219:.\source\rte/sc_displaydata.h **** 
 220:.\source\rte/sc_displaydata.h **** 
 221:.\source\rte/sc_displaydata.h **** /**
 222:.\source\rte/sc_displaydata.h ****  * Returns the count of refreshing trials (refresh, set or set_raw) that failed.
 223:.\source\rte/sc_displaydata.h ****  * Prerquisite: The signal is refreshed cyclically
 224:.\source\rte/sc_displaydata.h ****  *
 225:.\source\rte/sc_displaydata.h ****  * @param  SC_DISPLAYDATA_t * const signal: Pointer to the signal object
 226:.\source\rte/sc_displaydata.h ****  * @return uint32_t: Number of cycles since the signal has been updated for the last time
 227:.\source\rte/sc_displaydata.h ****  */
 228:.\source\rte/sc_displaydata.h **** inline uint32_t RTE_SC_DISPLAYDATA_getAge( const SC_DISPLAYDATA_t * const signal )
 229:.\source\rte/sc_displaydata.h **** {
 230:.\source\rte/sc_displaydata.h ****    return signal->age;
 231:.\source\rte/sc_displaydata.h **** }
 232:.\source\rte/sc_displaydata.h **** 
 233:.\source\rte/sc_displaydata.h **** /**
 234:.\source\rte/sc_displaydata.h ****  * Should be called by application or driver if no new value can be provided.
ARM GAS  C:\Users\bolob\AppData\Local\Temp\cc2W5SZg.s 			page 9


 235:.\source\rte/sc_displaydata.h ****  * @param  SC_DISPLAYDATA_t * const signal: Pointer to the signal object
 236:.\source\rte/sc_displaydata.h ****  * @param uint32_t increment: incrementvalue, typically in [ms]
 237:.\source\rte/sc_displaydata.h ****  * @return void
 238:.\source\rte/sc_displaydata.h ****  */
 239:.\source\rte/sc_displaydata.h **** inline void RTE_SC_DISPLAYDATA_incAge(  SC_DISPLAYDATA_t * const signal , uint32_t increment)
 240:.\source\rte/sc_displaydata.h **** {
 241:.\source\rte/sc_displaydata.h **** 	   //Hack....
 242:.\source\rte/sc_displaydata.h **** 	   if ( 0xFFFF0000 > (signal->age + increment) )
 243:.\source\rte/sc_displaydata.h **** 	   {
 244:.\source\rte/sc_displaydata.h **** 	      signal->age += increment;
 245:.\source\rte/sc_displaydata.h **** 	   }
 246:.\source\rte/sc_displaydata.h **** }
 247:.\source\rte/sc_displaydata.h **** 
 248:.\source\rte/sc_displaydata.h **** 
 249:.\source\rte/sc_displaydata.h **** /**************************************************************************************************
 250:.\source\rte/sc_displaydata.h **** /* Application Data read/write Interface																			*/
 251:.\source\rte/sc_displaydata.h **** /**************************************************************************************************
 252:.\source\rte/sc_displaydata.h **** 
 253:.\source\rte/sc_displaydata.h **** /**
 254:.\source\rte/sc_displaydata.h ****  * Returns the current application value as pointer to the signal payload.
 255:.\source\rte/sc_displaydata.h ****  * Careful: This is not threadsafe!!!
 256:.\source\rte/sc_displaydata.h ****  *
 257:.\source\rte/sc_displaydata.h ****  * @param  SC_DISPLAYDATA_t * const signal: Pointer to the signal object
 258:.\source\rte/sc_displaydata.h ****  * @return sc_displaydata_data_t*: pointer to the current value of the application data buffer
 259:.\source\rte/sc_displaydata.h ****  *
 260:.\source\rte/sc_displaydata.h ****  **/
 261:.\source\rte/sc_displaydata.h **** inline SC_DISPLAYDATA_data_t* RTE_SC_DISPLAYDATA_getPtr( SC_DISPLAYDATA_t * const signal )
 262:.\source\rte/sc_displaydata.h **** {               
 263:.\source\rte/sc_displaydata.h ****    //Todo: Critical region cannot be protected using return values																						
 264:.\source\rte/sc_displaydata.h ****    return &(signal->value);                                                                        
 265:.\source\rte/sc_displaydata.h **** }
 266:.\source\rte/sc_displaydata.h **** 
 267:.\source\rte/sc_displaydata.h **** /**
 268:.\source\rte/sc_displaydata.h ****  * Returns the current application value of the passed signal instance.
 269:.\source\rte/sc_displaydata.h ****  *
 270:.\source\rte/sc_displaydata.h ****  * @param  SC_DISPLAYDATA_t * const signal: Pointer to the signal object
 271:.\source\rte/sc_displaydata.h ****  * @return sc_displaydata_data_t: current value of the application data buffer
 272:.\source\rte/sc_displaydata.h ****  *
 273:.\source\rte/sc_displaydata.h ****  **/
 274:.\source\rte/sc_displaydata.h **** inline SC_DISPLAYDATA_data_t RTE_SC_DISPLAYDATA_get( const SC_DISPLAYDATA_t * const signal )
 275:.\source\rte/sc_displaydata.h **** {               
 276:.\source\rte/sc_displaydata.h ****    //Todo: Critical region cannot be protected using return values																						
 277:.\source\rte/sc_displaydata.h ****    return signal->value;                                                                           
 103              		.loc 2 277 0
 104 0004 214B     		ldr	r3, .L15
 105 0006 1B88     		ldrh	r3, [r3]
 106 0008 ADF80C30 		strh	r3, [sp, #12]	@ movhi
 107 000c ADF80830 		strh	r3, [sp, #8]	@ movhi
 108              	.LVL1:
 109              	.LBE8:
 110              	.LBE7:
 121:clock_widget.c ****      // Tracks if the edit mode is going to be exit
 122:clock_widget.c ****     static boolean_t leavingEditMode = FALSE; 
 123:clock_widget.c ****     
 124:clock_widget.c ****     // Retrieve current display configuration data
 125:clock_widget.c ****     SC_DISPLAYDATA_data_t data = RTE_SC_DISPLAYDATA_get(&SO_DISPLAYDATA_signal);  
 126:clock_widget.c **** 
ARM GAS  C:\Users\bolob\AppData\Local\Temp\cc2W5SZg.s 			page 10


 127:clock_widget.c ****     // If the currently focused widget is the hour field,
 128:clock_widget.c ****     if(currentWidgetContext->type == WIDGET_HOUR){
 111              		.loc 1 128 0
 112 0010 1F4B     		ldr	r3, .L15+4
 113 0012 1B68     		ldr	r3, [r3]
 114 0014 5B7A     		ldrb	r3, [r3, #9]	@ zero_extendqisi2
 115 0016 012B     		cmp	r3, #1
 116 0018 05D1     		bne	.L7
 129:clock_widget.c ****         // only highlight the hour field.
 130:clock_widget.c ****         data.invHours = TRUE;         
 117              		.loc 1 130 0
 118 001a 8DF80830 		strb	r3, [sp, #8]
 131:clock_widget.c ****         data.invMinutes = FALSE;   
 119              		.loc 1 131 0
 120 001e 0023     		movs	r3, #0
 121 0020 8DF80930 		strb	r3, [sp, #9]
 122 0024 12E0     		b	.L8
 123              	.L7:
 132:clock_widget.c ****     }
 133:clock_widget.c ****     // If the focused widget is the minute field and the editing mode hasn't been left yet,
 134:clock_widget.c ****     else if((currentWidgetContext->type == WIDGET_MINUTE) && !leavingEditMode){
 124              		.loc 1 134 0
 125 0026 53B9     		cbnz	r3, .L9
 126              		.loc 1 134 0 is_stmt 0 discriminator 1
 127 0028 194B     		ldr	r3, .L15+4
 128 002a 1B79     		ldrb	r3, [r3, #4]	@ zero_extendqisi2
 129 002c 3BB9     		cbnz	r3, .L9
 135:clock_widget.c ****          // only highlight the minute field ...
 136:clock_widget.c ****         data.invHours = FALSE;      
 130              		.loc 1 136 0 is_stmt 1
 131 002e 8DF80830 		strb	r3, [sp, #8]
 137:clock_widget.c ****         data.invMinutes = TRUE;     
 132              		.loc 1 137 0
 133 0032 0123     		movs	r3, #1
 134 0034 8DF80930 		strb	r3, [sp, #9]
 138:clock_widget.c ****         
 139:clock_widget.c ****         // Mark that the next EV_KEYLEFT will lead to leaving the edit mode
 140:clock_widget.c ****         leavingEditMode = TRUE;       
 135              		.loc 1 140 0
 136 0038 154A     		ldr	r2, .L15+4
 137 003a 1371     		strb	r3, [r2, #4]
 138 003c 06E0     		b	.L8
 139              	.L9:
 141:clock_widget.c ****     }
 142:clock_widget.c ****     // All other cases (e.g., no widget focused or after leaving minute editing mode)
 143:clock_widget.c ****     else{
 144:clock_widget.c ****         // No speciifc highlighting
 145:clock_widget.c ****         data.invHours = FALSE;       
 140              		.loc 1 145 0
 141 003e 0023     		movs	r3, #0
 142 0040 8DF80830 		strb	r3, [sp, #8]
 146:clock_widget.c ****         data.invMinutes = FALSE;    
 143              		.loc 1 146 0
 144 0044 8DF80930 		strb	r3, [sp, #9]
 147:clock_widget.c ****         
 148:clock_widget.c ****         // Reset the flag in order to re-enter the minute mode correctly
 149:clock_widget.c ****         leavingEditMode = FALSE;     
ARM GAS  C:\Users\bolob\AppData\Local\Temp\cc2W5SZg.s 			page 11


 145              		.loc 1 149 0
 146 0048 114A     		ldr	r2, .L15+4
 147 004a 1371     		strb	r3, [r2, #4]
 148              	.L8:
 149              	.LVL2:
 150 004c BDF80810 		ldrh	r1, [sp, #8]
 151 0050 ADF80410 		strh	r1, [sp, #4]	@ movhi
 152              	.LVL3:
 153              	.LBB9:
 154              	.LBB10:
 278:.\source\rte/sc_displaydata.h **** }                                                                                                  
 279:.\source\rte/sc_displaydata.h ****                                                                                                    
 280:.\source\rte/sc_displaydata.h **** /**
 281:.\source\rte/sc_displaydata.h ****  * Returns the current application value of the passed signal instance threadsafe.
 282:.\source\rte/sc_displaydata.h ****  *
 283:.\source\rte/sc_displaydata.h ****  * @param  SC_DISPLAYDATA_t * const signal: Pointer to the signal object
 284:.\source\rte/sc_displaydata.h ****  * @param  SC_DISPLAYDATA_data_t* data: Pointer to the return data Pointer to the signal object
 285:.\source\rte/sc_displaydata.h ****  * @return RC_SUCCESS
 286:.\source\rte/sc_displaydata.h ****  *
 287:.\source\rte/sc_displaydata.h ****  **/
 288:.\source\rte/sc_displaydata.h **** inline RC_t RTE_SC_DISPLAYDATA_getThreadSafe( const SC_DISPLAYDATA_t * const signal, SC_DISPLAYDATA
 289:.\source\rte/sc_displaydata.h **** {    
 290:.\source\rte/sc_displaydata.h ****    if (TRUE == signal->pSigCfg->resourceActive) GetResource(signal->pSigCfg->resource);
 291:.\source\rte/sc_displaydata.h ****    *data = signal->value;
 292:.\source\rte/sc_displaydata.h ****    if (TRUE == signal->pSigCfg->resourceActive) ReleaseResource(signal->pSigCfg->resource);        
 293:.\source\rte/sc_displaydata.h **** 
 294:.\source\rte/sc_displaydata.h ****    return RC_SUCCESS;                                                                   
 295:.\source\rte/sc_displaydata.h ****    
 296:.\source\rte/sc_displaydata.h **** }                                                                                                  
 297:.\source\rte/sc_displaydata.h ****                                                                                                    
 298:.\source\rte/sc_displaydata.h **** /**
 299:.\source\rte/sc_displaydata.h ****  * Sets a new application value to the passed signal instance by passing the new value.
 300:.\source\rte/sc_displaydata.h ****  * The corresponding driver raw value will be calculated immediately by using the default conversio
 301:.\source\rte/sc_displaydata.h ****  * signal specific scaling function.
 302:.\source\rte/sc_displaydata.h ****  * The signal age will be set to 0 and the new status will be 'RTE_SIGNALSTATUS_VALID'.
 303:.\source\rte/sc_displaydata.h ****  *
 304:.\source\rte/sc_displaydata.h ****  * @param  SC_DISPLAYDATA_t * const signal: Pointer to the signal object
 305:.\source\rte/sc_displaydata.h ****  * @param  sc_displaydata_data_t const value: value for the application data buffer
 306:.\source\rte/sc_displaydata.h ****  * @return RC_t: standard return code, currently only RC_SUCCESS
 307:.\source\rte/sc_displaydata.h ****  *
 308:.\source\rte/sc_displaydata.h ****  **/
 309:.\source\rte/sc_displaydata.h **** inline RC_t RTE_SC_DISPLAYDATA_set(SC_DISPLAYDATA_t * const signal, const SC_DISPLAYDATA_data_t val
 310:.\source\rte/sc_displaydata.h **** {
 311:.\source\rte/sc_displaydata.h **** 
 312:.\source\rte/sc_displaydata.h ****    RC_t ret = RC_SUCCESS;
 313:.\source\rte/sc_displaydata.h ****    size_t taskNum=0;
 314:.\source\rte/sc_displaydata.h **** 
 315:.\source\rte/sc_displaydata.h **** 
 316:.\source\rte/sc_displaydata.h ****    if (TRUE == signal->pSigCfg->resourceActive) GetResource(signal->pSigCfg->resource);
 155              		.loc 2 316 0
 156 0054 0D4B     		ldr	r3, .L15
 157 0056 9A68     		ldr	r2, [r3, #8]
 317:.\source\rte/sc_displaydata.h ****    signal->value  = value;
 158              		.loc 2 317 0
 159 0058 1980     		strh	r1, [r3]	@ movhi
 318:.\source\rte/sc_displaydata.h ****    signal->age    = 0;
 160              		.loc 2 318 0
ARM GAS  C:\Users\bolob\AppData\Local\Temp\cc2W5SZg.s 			page 12


 161 005a 0021     		movs	r1, #0
 162 005c 5960     		str	r1, [r3, #4]
 319:.\source\rte/sc_displaydata.h ****    signal->status = RTE_SIGNALSTATUS_VALID;
 163              		.loc 2 319 0
 164 005e 0221     		movs	r1, #2
 165 0060 9970     		strb	r1, [r3, #2]
 320:.\source\rte/sc_displaydata.h ****    if (TRUE == signal->pSigCfg->resourceActive) ReleaseResource(signal->pSigCfg->resource);
 321:.\source\rte/sc_displaydata.h **** 
 322:.\source\rte/sc_displaydata.h ****    //Pointer to the Taskarray, containing the tasks receiving the onUpdate events
 323:.\source\rte/sc_displaydata.h ****    TaskTypeArray* pTaskArray = signal->pSigCfg->onUpdateTasks;
 166              		.loc 2 323 0
 167 0062 5569     		ldr	r5, [r2, #20]
 168              	.LVL4:
 324:.\source\rte/sc_displaydata.h **** 
 325:.\source\rte/sc_displaydata.h ****    if (0 != signal->pSigCfg->evOnUpdate && NULL != pTaskArray){
 169              		.loc 2 325 0
 170 0064 9368     		ldr	r3, [r2, #8]
 171 0066 73B1     		cbz	r3, .L6
 172 0068 3DB9     		cbnz	r5, .L13
 173 006a 0CE0     		b	.L6
 174              	.LVL5:
 175              	.L12:
 176              	.LBB11:
 326:.\source\rte/sc_displaydata.h ****       for( taskNum=0 ; taskNum < signal->pSigCfg->onUpdateTaskCount ;taskNum++){
 327:.\source\rte/sc_displaydata.h **** 		  
 328:.\source\rte/sc_displaydata.h ****           TaskType task = (*pTaskArray)[taskNum];
 329:.\source\rte/sc_displaydata.h **** 	      SetEvent( task, signal->pSigCfg->evOnUpdate);
 177              		.loc 2 329 0
 178 006c 9968     		ldr	r1, [r3, #8]
 179 006e 55F82400 		ldr	r0, [r5, r4, lsl #2]
 180 0072 FFF7FEFF 		bl	EE_oo_SetEvent
 181              	.LVL6:
 182              	.LBE11:
 326:.\source\rte/sc_displaydata.h ****       for( taskNum=0 ; taskNum < signal->pSigCfg->onUpdateTaskCount ;taskNum++){
 183              		.loc 2 326 0
 184 0076 0134     		adds	r4, r4, #1
 185              	.LVL7:
 186 0078 00E0     		b	.L11
 187              	.LVL8:
 188              	.L13:
 325:.\source\rte/sc_displaydata.h ****       for( taskNum=0 ; taskNum < signal->pSigCfg->onUpdateTaskCount ;taskNum++){
 189              		.loc 2 325 0
 190 007a 0024     		movs	r4, #0
 191              	.LVL9:
 192              	.L11:
 326:.\source\rte/sc_displaydata.h ****       for( taskNum=0 ; taskNum < signal->pSigCfg->onUpdateTaskCount ;taskNum++){
 193              		.loc 2 326 0
 194 007c 034B     		ldr	r3, .L15
 195 007e 9B68     		ldr	r3, [r3, #8]
 196 0080 1A69     		ldr	r2, [r3, #16]
 197 0082 9442     		cmp	r4, r2
 198 0084 F2D3     		bcc	.L12
 199              	.LVL10:
 200              	.L6:
 201              	.LBE10:
 202              	.LBE9:
 150:clock_widget.c ****     }
ARM GAS  C:\Users\bolob\AppData\Local\Temp\cc2W5SZg.s 			page 13


 151:clock_widget.c **** 
 152:clock_widget.c ****     // Update the display signal with the modified highlight flags
 153:clock_widget.c ****     RTE_SC_DISPLAYDATA_set(&SO_DISPLAYDATA_signal, data);  
 154:clock_widget.c **** }
 203              		.loc 1 154 0
 204 0086 05B0     		add	sp, sp, #20
 205              		.cfi_def_cfa_offset 12
 206              		@ sp needed
 207 0088 30BD     		pop	{r4, r5, pc}
 208              	.LVL11:
 209              	.L16:
 210 008a 00BF     		.align	2
 211              	.L15:
 212 008c 00000000 		.word	SO_DISPLAYDATA_signal
 213 0090 00000000 		.word	.LANCHOR0
 214              		.cfi_endproc
 215              	.LFE139:
 216              		.size	CLOCK__setDisplayFonts, .-CLOCK__setDisplayFonts
 217              		.section	.text.WIDGET__processEvent,"ax",%progbits
 218              		.align	2
 219              		.global	WIDGET__processEvent
 220              		.thumb
 221              		.thumb_func
 222              		.type	WIDGET__processEvent, %function
 223              	WIDGET__processEvent:
 224              	.LFB133:
  67:clock_widget.c ****     currentWidgetContext = widget;  // Kontext setzen
 225              		.loc 1 67 0
 226              		.cfi_startproc
 227              		@ args = 0, pretend = 0, frame = 0
 228              		@ frame_needed = 0, uses_anonymous_args = 0
 229              	.LVL12:
 230 0000 2DE9F047 		push	{r4, r5, r6, r7, r8, r9, r10, lr}
 231              		.cfi_def_cfa_offset 32
 232              		.cfi_offset 4, -32
 233              		.cfi_offset 5, -28
 234              		.cfi_offset 6, -24
 235              		.cfi_offset 7, -20
 236              		.cfi_offset 8, -16
 237              		.cfi_offset 9, -12
 238              		.cfi_offset 10, -8
 239              		.cfi_offset 14, -4
 240 0004 8246     		mov	r10, r0
 241 0006 8846     		mov	r8, r1
  68:clock_widget.c **** 
 242              		.loc 1 68 0
 243 0008 1A4B     		ldr	r3, .L28
 244 000a 1860     		str	r0, [r3]
 245              	.LVL13:
 246              	.LBB12:
  70:clock_widget.c ****         if (CLOCK_Widget_Transitions[i].currentState == widget->state) {
 247              		.loc 1 70 0
 248 000c 0026     		movs	r6, #0
 249 000e 29E0     		b	.L18
 250              	.LVL14:
 251              	.L26:
  71:clock_widget.c ****             const STATE_stateInnerTransitionTable_t* table = CLOCK_Widget_Transitions[i].transition
ARM GAS  C:\Users\bolob\AppData\Local\Temp\cc2W5SZg.s 			page 14


 252              		.loc 1 71 0
 253 0010 06EB4602 		add	r2, r6, r6, lsl #1
 254 0014 9300     		lsls	r3, r2, #2
 255 0016 184A     		ldr	r2, .L28+4
 256 0018 D258     		ldr	r2, [r2, r3]
 257 001a 9AF80030 		ldrb	r3, [r10]	@ zero_extendqisi2
 258 001e 9A42     		cmp	r2, r3
 259 0020 1ED1     		bne	.L19
 260              	.LBB13:
  72:clock_widget.c ****             uint16_t size = CLOCK_Widget_Transitions[i].tableSize;
 261              		.loc 1 72 0
 262 0022 1548     		ldr	r0, .L28+4
 263 0024 7300     		lsls	r3, r6, #1
 264 0026 9A19     		adds	r2, r3, r6
 265 0028 9100     		lsls	r1, r2, #2
 266 002a 0144     		add	r1, r1, r0
 267 002c 4D68     		ldr	r5, [r1, #4]
 268              	.LVL15:
  73:clock_widget.c **** 
 269              		.loc 1 73 0
 270 002e B1F80890 		ldrh	r9, [r1, #8]
 271              	.LVL16:
 272              	.LBB14:
  75:clock_widget.c ****                 if (table[j].event == event && (!table[j].guard || table[j].guard())) {
 273              		.loc 1 75 0
 274 0032 0024     		movs	r4, #0
 275 0034 12E0     		b	.L20
 276              	.LVL17:
 277              	.L25:
  76:clock_widget.c ****                     if (table[j].action) {
 278              		.loc 1 76 0
 279 0036 2301     		lsls	r3, r4, #4
 280 0038 EF18     		adds	r7, r5, r3
 281 003a EB5C     		ldrb	r3, [r5, r3]	@ zero_extendqisi2
 282 003c 4345     		cmp	r3, r8
 283 003e 0BD1     		bne	.L21
  76:clock_widget.c ****                     if (table[j].action) {
 284              		.loc 1 76 0 is_stmt 0 discriminator 1
 285 0040 BB68     		ldr	r3, [r7, #8]
 286 0042 0BB1     		cbz	r3, .L22
  76:clock_widget.c ****                     if (table[j].action) {
 287              		.loc 1 76 0 discriminator 2
 288 0044 9847     		blx	r3
 289              	.LVL18:
 290 0046 38B1     		cbz	r0, .L21
 291              	.L22:
  77:clock_widget.c ****                         table[j].action();  // Zugriff über globalen Kontext möglich
 292              		.loc 1 77 0 is_stmt 1
 293 0048 FB68     		ldr	r3, [r7, #12]
 294 004a 03B1     		cbz	r3, .L23
  78:clock_widget.c ****                     }
 295              		.loc 1 78 0
 296 004c 9847     		blx	r3
 297              	.LVL19:
 298              	.L23:
  80:clock_widget.c ****                     return;
 299              		.loc 1 80 0
ARM GAS  C:\Users\bolob\AppData\Local\Temp\cc2W5SZg.s 			page 15


 300 004e 7B68     		ldr	r3, [r7, #4]
 301 0050 8AF80030 		strb	r3, [r10]
  81:clock_widget.c ****                 }
 302              		.loc 1 81 0
 303 0054 BDE8F087 		pop	{r4, r5, r6, r7, r8, r9, r10, pc}
 304              	.LVL20:
 305              	.L21:
  75:clock_widget.c ****                 if (table[j].event == event && (!table[j].guard || table[j].guard())) {
 306              		.loc 1 75 0 discriminator 2
 307 0058 0134     		adds	r4, r4, #1
 308              	.LVL21:
 309 005a A4B2     		uxth	r4, r4
 310              	.LVL22:
 311              	.L20:
  75:clock_widget.c ****                 if (table[j].event == event && (!table[j].guard || table[j].guard())) {
 312              		.loc 1 75 0 is_stmt 0 discriminator 1
 313 005c 4C45     		cmp	r4, r9
 314 005e EAD3     		bcc	.L25
 315              	.LVL23:
 316              	.L19:
 317              	.LBE14:
 318              	.LBE13:
  70:clock_widget.c ****         if (CLOCK_Widget_Transitions[i].currentState == widget->state) {
 319              		.loc 1 70 0 is_stmt 1 discriminator 2
 320 0060 0136     		adds	r6, r6, #1
 321              	.LVL24:
 322 0062 F6B2     		uxtb	r6, r6
 323              	.LVL25:
 324              	.L18:
  70:clock_widget.c ****         if (CLOCK_Widget_Transitions[i].currentState == widget->state) {
 325              		.loc 1 70 0 is_stmt 0 discriminator 1
 326 0064 012E     		cmp	r6, #1
 327 0066 D3D9     		bls	.L26
 328              	.LBE12:
  88:clock_widget.c **** }
 329              		.loc 1 88 0 is_stmt 1
 330 0068 0022     		movs	r2, #0
 331 006a 024B     		ldr	r3, .L28
 332 006c 1A60     		str	r2, [r3]
 333 006e BDE8F087 		pop	{r4, r5, r6, r7, r8, r9, r10, pc}
 334              	.LVL26:
 335              	.L29:
 336 0072 00BF     		.align	2
 337              	.L28:
 338 0074 00000000 		.word	.LANCHOR0
 339 0078 00000000 		.word	.LANCHOR1
 340              		.cfi_endproc
 341              	.LFE133:
 342              		.size	WIDGET__processEvent, .-WIDGET__processEvent
 343              		.section	.text.CLOCK__incrementHours,"ax",%progbits
 344              		.align	2
 345              		.global	CLOCK__incrementHours
 346              		.thumb
 347              		.thumb_func
 348              		.type	CLOCK__incrementHours, %function
 349              	CLOCK__incrementHours:
 350              	.LFB135:
ARM GAS  C:\Users\bolob\AppData\Local\Temp\cc2W5SZg.s 			page 16


 106:clock_widget.c ****         // currently a dummy
 351              		.loc 1 106 0
 352              		.cfi_startproc
 353              		@ args = 0, pretend = 0, frame = 0
 354              		@ frame_needed = 0, uses_anonymous_args = 0
 355              		@ link register save eliminated.
 356 0000 7047     		bx	lr
 357              		.cfi_endproc
 358              	.LFE135:
 359              		.size	CLOCK__incrementHours, .-CLOCK__incrementHours
 360 0002 00BF     		.section	.text.CLOCK__incrementMinutes,"ax",%progbits
 361              		.align	2
 362              		.global	CLOCK__incrementMinutes
 363              		.thumb
 364              		.thumb_func
 365              		.type	CLOCK__incrementMinutes, %function
 366              	CLOCK__incrementMinutes:
 367              	.LFB136:
 109:clock_widget.c ****         // currently a dummy
 368              		.loc 1 109 0
 369              		.cfi_startproc
 370              		@ args = 0, pretend = 0, frame = 0
 371              		@ frame_needed = 0, uses_anonymous_args = 0
 372              		@ link register save eliminated.
 373 0000 7047     		bx	lr
 374              		.cfi_endproc
 375              	.LFE136:
 376              		.size	CLOCK__incrementMinutes, .-CLOCK__incrementMinutes
 377 0002 00BF     		.section	.text.CLOCK__updateDisplay,"ax",%progbits
 378              		.align	2
 379              		.global	CLOCK__updateDisplay
 380              		.thumb
 381              		.thumb_func
 382              		.type	CLOCK__updateDisplay, %function
 383              	CLOCK__updateDisplay:
 384              	.LFB138:
 116:clock_widget.c ****         // currently a dummy
 385              		.loc 1 116 0
 386              		.cfi_startproc
 387              		@ args = 0, pretend = 0, frame = 0
 388              		@ frame_needed = 0, uses_anonymous_args = 0
 389              		@ link register save eliminated.
 390 0000 7047     		bx	lr
 391              		.cfi_endproc
 392              	.LFE138:
 393              		.size	CLOCK__updateDisplay, .-CLOCK__updateDisplay
 394              		.global	CLOCK_Widget_Transitions_Size
 395              		.global	CLOCK_Widget_Transitions
 396              		.global	STATE_CLOCK_W_ISAUTOINCREMENT_Transitions
 397              		.global	STATE_CLOCK_W_ISFOCUS_Transitions
 398              		.global	STATE_CLOCK_W_ISDISPLAYING_Transitions
 399              		.global	CLOCK_minutes
 400              		.global	CLOCK_hours
 401 0002 00BF     		.section	.rodata
 402              		.align	2
 403              		.set	.LANCHOR1,. + 0
 404              		.type	CLOCK_Widget_Transitions, %object
ARM GAS  C:\Users\bolob\AppData\Local\Temp\cc2W5SZg.s 			page 17


 405              		.size	CLOCK_Widget_Transitions, 24
 406              	CLOCK_Widget_Transitions:
 407 0000 01000000 		.word	1
 408 0004 00000000 		.word	STATE_CLOCK_W_ISFOCUS_Transitions
 409 0008 0300     		.short	3
 410 000a 0000     		.space	2
 411 000c 02000000 		.word	2
 412 0010 00000000 		.word	STATE_CLOCK_W_ISAUTOINCREMENT_Transitions
 413 0014 0300     		.short	3
 414 0016 0000     		.space	2
 415              		.type	CLOCK_Widget_Transitions_Size, %object
 416              		.size	CLOCK_Widget_Transitions_Size, 2
 417              	CLOCK_Widget_Transitions_Size:
 418 0018 0200     		.short	2
 419 001a 0000     		.space	2
 420              		.type	STATE_CLOCK_W_ISAUTOINCREMENT_Transitions, %object
 421              		.size	STATE_CLOCK_W_ISAUTOINCREMENT_Transitions, 48
 422              	STATE_CLOCK_W_ISAUTOINCREMENT_Transitions:
 423 001c 01       		.byte	1
 424 001d 000000   		.space	3
 425 0020 01000000 		.word	1
 426 0024 00000000 		.word	0
 427 0028 00000000 		.word	CLOCK__incrementWidget
 428 002c 02       		.byte	2
 429 002d 000000   		.space	3
 430 0030 01000000 		.word	1
 431 0034 00000000 		.word	0
 432 0038 00000000 		.word	CLOCK__setDisplayFonts
 433 003c 04       		.byte	4
 434 003d 000000   		.space	3
 435 0040 02000000 		.word	2
 436 0044 00000000 		.word	0
 437 0048 00000000 		.word	CLOCK__incrementWidget
 438              		.type	STATE_CLOCK_W_ISFOCUS_Transitions, %object
 439              		.size	STATE_CLOCK_W_ISFOCUS_Transitions, 48
 440              	STATE_CLOCK_W_ISFOCUS_Transitions:
 441 004c 01       		.byte	1
 442 004d 000000   		.space	3
 443 0050 01000000 		.word	1
 444 0054 00000000 		.word	0
 445 0058 00000000 		.word	CLOCK__incrementWidget
 446 005c 03       		.byte	3
 447 005d 000000   		.space	3
 448 0060 02000000 		.word	2
 449 0064 00000000 		.word	0
 450 0068 00000000 		.word	0
 451 006c 02       		.byte	2
 452 006d 000000   		.space	3
 453 0070 01000000 		.word	1
 454 0074 00000000 		.word	0
 455 0078 00000000 		.word	CLOCK__setDisplayFonts
 456              		.type	STATE_CLOCK_W_ISDISPLAYING_Transitions, %object
 457              		.size	STATE_CLOCK_W_ISDISPLAYING_Transitions, 16
 458              	STATE_CLOCK_W_ISDISPLAYING_Transitions:
 459 007c 02       		.byte	2
 460 007d 000000   		.space	3
 461 0080 01000000 		.word	1
ARM GAS  C:\Users\bolob\AppData\Local\Temp\cc2W5SZg.s 			page 18


 462 0084 00000000 		.word	0
 463 0088 00000000 		.word	CLOCK__updateTime
 464              		.data
 465              		.align	2
 466              		.type	CLOCK_minutes, %object
 467              		.size	CLOCK_minutes, 12
 468              	CLOCK_minutes:
 469 0000 01       		.byte	1
 470 0001 000000   		.space	3
 471 0004 00000000 		.word	g_minutes
 472 0008 3C       		.byte	60
 473 0009 00       		.byte	0
 474 000a 0000     		.space	2
 475              		.type	CLOCK_hours, %object
 476              		.size	CLOCK_hours, 12
 477              	CLOCK_hours:
 478 000c 01       		.byte	1
 479 000d 000000   		.space	3
 480 0010 00000000 		.word	g_hours
 481 0014 18       		.byte	24
 482 0015 01       		.byte	1
 483 0016 0000     		.space	2
 484              		.bss
 485              		.align	2
 486              		.set	.LANCHOR0,. + 0
 487              		.type	currentWidgetContext, %object
 488              		.size	currentWidgetContext, 4
 489              	currentWidgetContext:
 490 0000 00000000 		.space	4
 491              		.type	leavingEditMode.7667, %object
 492              		.size	leavingEditMode.7667, 1
 493              	leavingEditMode.7667:
 494 0004 00       		.space	1
 495              		.text
 496              	.Letext0:
 497              		.file 3 "c:\\program files (x86)\\cypress\\psoc creator\\4.4\\psoc creator\\import\\gnu\\arm\\5.4.
 498              		.file 4 "c:\\program files (x86)\\cypress\\psoc creator\\4.4\\psoc creator\\import\\gnu\\arm\\5.4.
 499              		.file 5 "c:\\program files (x86)\\cypress\\psoc creator\\4.4\\psoc creator\\import\\gnu\\arm\\5.4.
 500              		.file 6 "Generated_Source\\PSoC5/ErikaOS_1_common_ee_types.inc"
 501              		.file 7 "Generated_Source\\PSoC5/ErikaOS_1_cortex_mx_ee_cpu.inc"
 502              		.file 8 "Generated_Source\\PSoC5/ErikaOS_1_ee_oo_common.inc"
 503              		.file 9 ".\\source\\bsw/global.h"
 504              		.file 10 ".\\source\\rte/rte_types.h"
 505              		.file 11 ".\\source\\rte/sc_event_type.h"
 506              		.file 12 "clock_common.h"
 507              		.file 13 ".\\source\\rte/rte.h"
 508              		.file 14 ".\\source\\rte/sc_displaydata_type.h"
 509              		.file 15 "clock_widget.h"
 510              		.file 16 "Generated_Source\\PSoC5/ErikaOS_1_ee_oo_intfunc.inc"
 511              		.file 17 "Generated_Source\\PSoC5/ErikaOS_1_cortex_mx_ee_context.inc"
 512              		.file 18 "Generated_Source\\PSoC5/ErikaOS_1_common_ee_primitives.inc"
 513              		.file 19 "Generated_Source\\PSoC5/core_cm3.h"
 514              		.file 20 ".\\source\\rte/sp_common.h"
 515              		.file 21 ".\\source\\asw/swc_clock.h"
 516              		.file 22 "Generated_Source\\PSoC5/ErikaOS_1_ee_oo_kernel.inc"