ARM GAS  C:\Users\bolob\AppData\Local\Temp\ccxlCnWg.s 			page 1


   1              		.syntax unified
   2              		.cpu cortex-m3
   3              		.fpu softvfp
   4              		.eabi_attribute 20, 1
   5              		.eabi_attribute 21, 1
   6              		.eabi_attribute 23, 3
   7              		.eabi_attribute 24, 1
   8              		.eabi_attribute 25, 1
   9              		.eabi_attribute 26, 1
  10              		.eabi_attribute 30, 1
  11              		.eabi_attribute 34, 1
  12              		.eabi_attribute 18, 4
  13              		.thumb
  14              		.syntax unified
  15              		.file	"clock_container.c"
  16              		.text
  17              	.Ltext0:
  18              		.cfi_sections	.debug_frame
  19              		.section	.text.CLOCK__increment1Minute,"ax",%progbits
  20              		.align	2
  21              		.global	CLOCK__increment1Minute
  22              		.thumb
  23              		.thumb_func
  24              		.type	CLOCK__increment1Minute, %function
  25              	CLOCK__increment1Minute:
  26              	.LFB134:
  27              		.file 1 "clock_container.c"
   1:clock_container.c **** /* ========================================
   2:clock_container.c ****  *
   3:clock_container.c ****  * Copyright YOUR COMPANY, THE YEAR
   4:clock_container.c ****  * All Rights Reserved
   5:clock_container.c ****  * UNPUBLISHED, LICENSED SOFTWARE.
   6:clock_container.c ****  *
   7:clock_container.c ****  * CONFIDENTIAL AND PROPRIETARY INFORMATION
   8:clock_container.c ****  * WHICH IS THE PROPERTY OF your company.
   9:clock_container.c ****  *
  10:clock_container.c ****  * ========================================
  11:clock_container.c **** */
  12:clock_container.c **** #include "clock_container.h"
  13:clock_container.c **** 
  14:clock_container.c **** // =================================== Container ===================================
  15:clock_container.c **** 
  16:clock_container.c **** /** ==== CLOCK_C_ISDISPLAYING ===== */
  17:clock_container.c **** const STATE_stateInnerTransitionTable_t STATE_CLOCK_C_ISDISPLAYING_Transitions[] = {
  18:clock_container.c **** /*    Event                     ToState                Guard    Action                   */
  19:clock_container.c ****     { EV_KEYLEFT,               CLOCK_C_ISEDITINGHOURS, 0,      CLOCK__dispatch_KL_Hours },
  20:clock_container.c ****     { EV_1MIN,                  CLOCK_C_ISDISPLAYING, 0,        CLOCK__increment1Minute }
  21:clock_container.c **** };
  22:clock_container.c **** 
  23:clock_container.c **** /** ==== CLOCK_C_ISEDITINGHOURS ===== */
  24:clock_container.c **** const STATE_stateInnerTransitionTable_t STATE_CLOCK_C_ISEDITINGHOURS_Transitions[] = {
  25:clock_container.c **** /*    Event                     ToState                Guard    Action                   */
  26:clock_container.c ****     { EV_KEYLEFT,               CLOCK_C_ISEDITINGMINUTES, 0,    CLOCK__dispatch_KL_HoursMin } ,
  27:clock_container.c ****     { EV_KEYRIGHT,              CLOCK_C_ISEDITINGHOURS,   0,    CLOCK__dispatch_KR_Hours },
  28:clock_container.c ****     { EV_KEYRIGHTLONGPRESS,     CLOCK_C_ISEDITINGHOURS,   0,    CLOCK__dispatch_KRLP_Hours },
  29:clock_container.c ****     { EV_250MS,                 CLOCK_C_ISEDITINGHOURS,   0,    CLOCK__dispatch_250MS_Hours }
  30:clock_container.c **** };
ARM GAS  C:\Users\bolob\AppData\Local\Temp\ccxlCnWg.s 			page 2


  31:clock_container.c **** 
  32:clock_container.c **** /** ==== CLOCK_C_ISEDITINGMINUTES ===== */
  33:clock_container.c **** const STATE_stateInnerTransitionTable_t STATE_CLOCK_C_ISEDITINGMINUTES_Transitions[] = {
  34:clock_container.c **** /*    Event                     ToState                Guard    Action                   */
  35:clock_container.c ****     { EV_KEYLEFT,               CLOCK_C_ISDISPLAYING,    0,     CLOCK__dispatch_KL_Min },
  36:clock_container.c ****     { EV_KEYRIGHT,              CLOCK_C_ISEDITINGMINUTES, 0,    CLOCK__dispatch_KR_Min },
  37:clock_container.c ****     { EV_KEYRIGHTLONGPRESS,     CLOCK_C_ISEDITINGMINUTES, 0,    CLOCK__dispatch_KRLP_Min },
  38:clock_container.c ****     { EV_250MS,                 CLOCK_C_ISEDITINGMINUTES, 0,    CLOCK__dispatch_250MS_Min }
  39:clock_container.c **** };
  40:clock_container.c **** 
  41:clock_container.c **** // =============== Outer Table ===============
  42:clock_container.c **** 
  43:clock_container.c **** const STATE_stateOuterTransitionTable_t CLOCK_Container_Transitions[] = {
  44:clock_container.c ****     { CLOCK_C_ISDISPLAYING,      STATE_CLOCK_C_ISDISPLAYING_Transitions, sizeof(STATE_CLOCK_C_ISDIS
  45:clock_container.c ****     { CLOCK_C_ISEDITINGHOURS,     STATE_CLOCK_C_ISEDITINGHOURS_Transitions, sizeof(STATE_CLOCK_C_IS
  46:clock_container.c ****     { CLOCK_C_ISEDITINGMINUTES,   STATE_CLOCK_C_ISEDITINGMINUTES_Transitions, sizeof(STATE_CLOCK_C_
  47:clock_container.c **** };
  48:clock_container.c **** 
  49:clock_container.c **** const uint16_t CLOCK_Container_Transitions_Size = sizeof(CLOCK_Container_Transitions)/sizeof(STATE_
  50:clock_container.c **** 
  51:clock_container.c **** // Function in order to process the events
  52:clock_container.c **** void CONTAINER_processEvent(ClockContainerState* currentState, EVENT_enum_t event) {
  53:clock_container.c ****     for (uint8_t i = 0; i < CLOCK_Container_Transitions_Size; ++i) {
  54:clock_container.c ****         if (CLOCK_Container_Transitions[i].currentState == *currentState) {
  55:clock_container.c ****             const STATE_stateInnerTransitionTable_t* table = CLOCK_Container_Transitions[i].transit
  56:clock_container.c ****             uint16_t size = CLOCK_Container_Transitions[i].tableSize;
  57:clock_container.c **** 
  58:clock_container.c ****             for (uint16_t j = 0; j < size; ++j) {
  59:clock_container.c ****                 if (table[j].event == event) {
  60:clock_container.c ****                     if (table[j].guard == NULL || table[j].guard()) {
  61:clock_container.c ****                         if (table[j].action) {
  62:clock_container.c ****                             table[j].action();
  63:clock_container.c ****                         }
  64:clock_container.c ****                         *currentState = table[j].nextState;
  65:clock_container.c ****                         return;
  66:clock_container.c ****                     }
  67:clock_container.c ****                 }
  68:clock_container.c ****             }
  69:clock_container.c ****         }
  70:clock_container.c ****     }
  71:clock_container.c **** }
  72:clock_container.c **** 
  73:clock_container.c **** 
  74:clock_container.c **** void CLOCK__increment1Minute(void) {
  28              		.loc 1 74 0
  29              		.cfi_startproc
  30              		@ args = 0, pretend = 0, frame = 0
  31              		@ frame_needed = 0, uses_anonymous_args = 0
  32              		@ link register save eliminated.
  75:clock_container.c ****     g_minutes++;
  33              		.loc 1 75 0
  34 0000 094A     		ldr	r2, .L3
  35 0002 1378     		ldrb	r3, [r2]	@ zero_extendqisi2
  36 0004 0133     		adds	r3, r3, #1
  37 0006 DBB2     		uxtb	r3, r3
  38 0008 1370     		strb	r3, [r2]
  76:clock_container.c ****     
ARM GAS  C:\Users\bolob\AppData\Local\Temp\ccxlCnWg.s 			page 3


  77:clock_container.c ****     // If 60 minutes have been reached,
  78:clock_container.c ****     if(g_minutes >= 60) {
  39              		.loc 1 78 0
  40 000a 3B2B     		cmp	r3, #59
  41 000c 0BD9     		bls	.L1
  79:clock_container.c ****         // increase the current hour
  80:clock_container.c ****         g_hours++;
  42              		.loc 1 80 0
  43 000e 074A     		ldr	r2, .L3+4
  44 0010 1378     		ldrb	r3, [r2]	@ zero_extendqisi2
  45 0012 0133     		adds	r3, r3, #1
  46 0014 DBB2     		uxtb	r3, r3
  47 0016 1370     		strb	r3, [r2]
  81:clock_container.c ****          
  82:clock_container.c ****         // and reset the counter for the minutes.
  83:clock_container.c ****         g_minutes = 0;
  48              		.loc 1 83 0
  49 0018 0021     		movs	r1, #0
  50 001a 034A     		ldr	r2, .L3
  51 001c 1170     		strb	r1, [r2]
  84:clock_container.c ****         
  85:clock_container.c ****         // if 24 hours have been reached,
  86:clock_container.c ****         if(g_hours >= 24){
  52              		.loc 1 86 0
  53 001e 172B     		cmp	r3, #23
  54 0020 01D9     		bls	.L1
  87:clock_container.c ****             // reset the hours
  88:clock_container.c ****             g_hours = 0;
  55              		.loc 1 88 0
  56 0022 024B     		ldr	r3, .L3+4
  57 0024 1970     		strb	r1, [r3]
  58              	.L1:
  59 0026 7047     		bx	lr
  60              	.L4:
  61              		.align	2
  62              	.L3:
  63 0028 00000000 		.word	g_minutes
  64 002c 00000000 		.word	g_hours
  65              		.cfi_endproc
  66              	.LFE134:
  67              		.size	CLOCK__increment1Minute, .-CLOCK__increment1Minute
  68              		.section	.text.CLOCK__dispatch_KL_Hours,"ax",%progbits
  69              		.align	2
  70              		.global	CLOCK__dispatch_KL_Hours
  71              		.thumb
  72              		.thumb_func
  73              		.type	CLOCK__dispatch_KL_Hours, %function
  74              	CLOCK__dispatch_KL_Hours:
  75              	.LFB135:
  89:clock_container.c ****         }
  90:clock_container.c ****     }
  91:clock_container.c ****         
  92:clock_container.c **** }
  93:clock_container.c **** 
  94:clock_container.c **** void CLOCK__dispatch_KL_Hours(void) {
  76              		.loc 1 94 0
  77              		.cfi_startproc
ARM GAS  C:\Users\bolob\AppData\Local\Temp\ccxlCnWg.s 			page 4


  78              		@ args = 0, pretend = 0, frame = 0
  79              		@ frame_needed = 0, uses_anonymous_args = 0
  80 0000 08B5     		push	{r3, lr}
  81              		.cfi_def_cfa_offset 8
  82              		.cfi_offset 3, -8
  83              		.cfi_offset 14, -4
  95:clock_container.c ****     WIDGET__processEvent(&CLOCK_hours, EV_KEYLEFT);
  84              		.loc 1 95 0
  85 0002 0221     		movs	r1, #2
  86 0004 0148     		ldr	r0, .L7
  87 0006 FFF7FEFF 		bl	WIDGET__processEvent
  88              	.LVL0:
  89 000a 08BD     		pop	{r3, pc}
  90              	.L8:
  91              		.align	2
  92              	.L7:
  93 000c 00000000 		.word	CLOCK_hours
  94              		.cfi_endproc
  95              	.LFE135:
  96              		.size	CLOCK__dispatch_KL_Hours, .-CLOCK__dispatch_KL_Hours
  97              		.section	.text.CLOCK__dispatch_KL_HoursMin,"ax",%progbits
  98              		.align	2
  99              		.global	CLOCK__dispatch_KL_HoursMin
 100              		.thumb
 101              		.thumb_func
 102              		.type	CLOCK__dispatch_KL_HoursMin, %function
 103              	CLOCK__dispatch_KL_HoursMin:
 104              	.LFB136:
  96:clock_container.c **** }
  97:clock_container.c **** 
  98:clock_container.c **** void CLOCK__dispatch_KL_HoursMin(void) {
 105              		.loc 1 98 0
 106              		.cfi_startproc
 107              		@ args = 0, pretend = 0, frame = 0
 108              		@ frame_needed = 0, uses_anonymous_args = 0
 109 0000 08B5     		push	{r3, lr}
 110              		.cfi_def_cfa_offset 8
 111              		.cfi_offset 3, -8
 112              		.cfi_offset 14, -4
  99:clock_container.c ****     WIDGET__processEvent(&CLOCK_hours, EV_KEYLEFT);
 113              		.loc 1 99 0
 114 0002 0221     		movs	r1, #2
 115 0004 0348     		ldr	r0, .L11
 116 0006 FFF7FEFF 		bl	WIDGET__processEvent
 117              	.LVL1:
 100:clock_container.c ****     WIDGET__processEvent(&CLOCK_minutes, EV_KEYLEFT);
 118              		.loc 1 100 0
 119 000a 0221     		movs	r1, #2
 120 000c 0248     		ldr	r0, .L11+4
 121 000e FFF7FEFF 		bl	WIDGET__processEvent
 122              	.LVL2:
 123 0012 08BD     		pop	{r3, pc}
 124              	.L12:
 125              		.align	2
 126              	.L11:
 127 0014 00000000 		.word	CLOCK_hours
 128 0018 00000000 		.word	CLOCK_minutes
ARM GAS  C:\Users\bolob\AppData\Local\Temp\ccxlCnWg.s 			page 5


 129              		.cfi_endproc
 130              	.LFE136:
 131              		.size	CLOCK__dispatch_KL_HoursMin, .-CLOCK__dispatch_KL_HoursMin
 132              		.section	.text.CLOCK__dispatch_KR_Hours,"ax",%progbits
 133              		.align	2
 134              		.global	CLOCK__dispatch_KR_Hours
 135              		.thumb
 136              		.thumb_func
 137              		.type	CLOCK__dispatch_KR_Hours, %function
 138              	CLOCK__dispatch_KR_Hours:
 139              	.LFB137:
 101:clock_container.c **** }
 102:clock_container.c **** 
 103:clock_container.c **** void CLOCK__dispatch_KR_Hours(void) {
 140              		.loc 1 103 0
 141              		.cfi_startproc
 142              		@ args = 0, pretend = 0, frame = 0
 143              		@ frame_needed = 0, uses_anonymous_args = 0
 144 0000 08B5     		push	{r3, lr}
 145              		.cfi_def_cfa_offset 8
 146              		.cfi_offset 3, -8
 147              		.cfi_offset 14, -4
 104:clock_container.c ****     WIDGET__processEvent(&CLOCK_hours, EV_KEYRIGHT);
 148              		.loc 1 104 0
 149 0002 0121     		movs	r1, #1
 150 0004 0148     		ldr	r0, .L15
 151 0006 FFF7FEFF 		bl	WIDGET__processEvent
 152              	.LVL3:
 153 000a 08BD     		pop	{r3, pc}
 154              	.L16:
 155              		.align	2
 156              	.L15:
 157 000c 00000000 		.word	CLOCK_hours
 158              		.cfi_endproc
 159              	.LFE137:
 160              		.size	CLOCK__dispatch_KR_Hours, .-CLOCK__dispatch_KR_Hours
 161              		.section	.text.CLOCK__dispatch_KRLP_Hours,"ax",%progbits
 162              		.align	2
 163              		.global	CLOCK__dispatch_KRLP_Hours
 164              		.thumb
 165              		.thumb_func
 166              		.type	CLOCK__dispatch_KRLP_Hours, %function
 167              	CLOCK__dispatch_KRLP_Hours:
 168              	.LFB138:
 105:clock_container.c **** }
 106:clock_container.c **** 
 107:clock_container.c **** void CLOCK__dispatch_KRLP_Hours(void) {
 169              		.loc 1 107 0
 170              		.cfi_startproc
 171              		@ args = 0, pretend = 0, frame = 0
 172              		@ frame_needed = 0, uses_anonymous_args = 0
 173 0000 08B5     		push	{r3, lr}
 174              		.cfi_def_cfa_offset 8
 175              		.cfi_offset 3, -8
 176              		.cfi_offset 14, -4
 108:clock_container.c ****     WIDGET__processEvent(&CLOCK_hours, EV_KEYRIGHTLONGPRESS);
 177              		.loc 1 108 0
ARM GAS  C:\Users\bolob\AppData\Local\Temp\ccxlCnWg.s 			page 6


 178 0002 0321     		movs	r1, #3
 179 0004 0148     		ldr	r0, .L19
 180 0006 FFF7FEFF 		bl	WIDGET__processEvent
 181              	.LVL4:
 182 000a 08BD     		pop	{r3, pc}
 183              	.L20:
 184              		.align	2
 185              	.L19:
 186 000c 00000000 		.word	CLOCK_hours
 187              		.cfi_endproc
 188              	.LFE138:
 189              		.size	CLOCK__dispatch_KRLP_Hours, .-CLOCK__dispatch_KRLP_Hours
 190              		.section	.text.CLOCK__dispatch_250MS_Hours,"ax",%progbits
 191              		.align	2
 192              		.global	CLOCK__dispatch_250MS_Hours
 193              		.thumb
 194              		.thumb_func
 195              		.type	CLOCK__dispatch_250MS_Hours, %function
 196              	CLOCK__dispatch_250MS_Hours:
 197              	.LFB139:
 109:clock_container.c **** }
 110:clock_container.c **** 
 111:clock_container.c **** void CLOCK__dispatch_250MS_Hours(void) {
 198              		.loc 1 111 0
 199              		.cfi_startproc
 200              		@ args = 0, pretend = 0, frame = 0
 201              		@ frame_needed = 0, uses_anonymous_args = 0
 202 0000 08B5     		push	{r3, lr}
 203              		.cfi_def_cfa_offset 8
 204              		.cfi_offset 3, -8
 205              		.cfi_offset 14, -4
 112:clock_container.c ****     WIDGET__processEvent(&CLOCK_hours, EV_250MS);
 206              		.loc 1 112 0
 207 0002 0421     		movs	r1, #4
 208 0004 0148     		ldr	r0, .L23
 209 0006 FFF7FEFF 		bl	WIDGET__processEvent
 210              	.LVL5:
 211 000a 08BD     		pop	{r3, pc}
 212              	.L24:
 213              		.align	2
 214              	.L23:
 215 000c 00000000 		.word	CLOCK_hours
 216              		.cfi_endproc
 217              	.LFE139:
 218              		.size	CLOCK__dispatch_250MS_Hours, .-CLOCK__dispatch_250MS_Hours
 219              		.section	.text.CLOCK__dispatch_KL_Min,"ax",%progbits
 220              		.align	2
 221              		.global	CLOCK__dispatch_KL_Min
 222              		.thumb
 223              		.thumb_func
 224              		.type	CLOCK__dispatch_KL_Min, %function
 225              	CLOCK__dispatch_KL_Min:
 226              	.LFB140:
 113:clock_container.c **** }
 114:clock_container.c **** 
 115:clock_container.c **** void CLOCK__dispatch_KL_Min(void) {
 227              		.loc 1 115 0
ARM GAS  C:\Users\bolob\AppData\Local\Temp\ccxlCnWg.s 			page 7


 228              		.cfi_startproc
 229              		@ args = 0, pretend = 0, frame = 0
 230              		@ frame_needed = 0, uses_anonymous_args = 0
 231 0000 08B5     		push	{r3, lr}
 232              		.cfi_def_cfa_offset 8
 233              		.cfi_offset 3, -8
 234              		.cfi_offset 14, -4
 116:clock_container.c ****     WIDGET__processEvent(&CLOCK_minutes, EV_KEYLEFT);
 235              		.loc 1 116 0
 236 0002 0221     		movs	r1, #2
 237 0004 0148     		ldr	r0, .L27
 238 0006 FFF7FEFF 		bl	WIDGET__processEvent
 239              	.LVL6:
 240 000a 08BD     		pop	{r3, pc}
 241              	.L28:
 242              		.align	2
 243              	.L27:
 244 000c 00000000 		.word	CLOCK_minutes
 245              		.cfi_endproc
 246              	.LFE140:
 247              		.size	CLOCK__dispatch_KL_Min, .-CLOCK__dispatch_KL_Min
 248              		.section	.text.CLOCK__dispatch_KR_Min,"ax",%progbits
 249              		.align	2
 250              		.global	CLOCK__dispatch_KR_Min
 251              		.thumb
 252              		.thumb_func
 253              		.type	CLOCK__dispatch_KR_Min, %function
 254              	CLOCK__dispatch_KR_Min:
 255              	.LFB141:
 117:clock_container.c **** }
 118:clock_container.c **** 
 119:clock_container.c **** void CLOCK__dispatch_KR_Min(void) {
 256              		.loc 1 119 0
 257              		.cfi_startproc
 258              		@ args = 0, pretend = 0, frame = 0
 259              		@ frame_needed = 0, uses_anonymous_args = 0
 260 0000 08B5     		push	{r3, lr}
 261              		.cfi_def_cfa_offset 8
 262              		.cfi_offset 3, -8
 263              		.cfi_offset 14, -4
 120:clock_container.c ****     WIDGET__processEvent(&CLOCK_minutes, EV_KEYRIGHT);
 264              		.loc 1 120 0
 265 0002 0121     		movs	r1, #1
 266 0004 0148     		ldr	r0, .L31
 267 0006 FFF7FEFF 		bl	WIDGET__processEvent
 268              	.LVL7:
 269 000a 08BD     		pop	{r3, pc}
 270              	.L32:
 271              		.align	2
 272              	.L31:
 273 000c 00000000 		.word	CLOCK_minutes
 274              		.cfi_endproc
 275              	.LFE141:
 276              		.size	CLOCK__dispatch_KR_Min, .-CLOCK__dispatch_KR_Min
 277              		.section	.text.CLOCK__dispatch_KRLP_Min,"ax",%progbits
 278              		.align	2
 279              		.global	CLOCK__dispatch_KRLP_Min
ARM GAS  C:\Users\bolob\AppData\Local\Temp\ccxlCnWg.s 			page 8


 280              		.thumb
 281              		.thumb_func
 282              		.type	CLOCK__dispatch_KRLP_Min, %function
 283              	CLOCK__dispatch_KRLP_Min:
 284              	.LFB142:
 121:clock_container.c **** }
 122:clock_container.c **** 
 123:clock_container.c **** void CLOCK__dispatch_KRLP_Min(void) {
 285              		.loc 1 123 0
 286              		.cfi_startproc
 287              		@ args = 0, pretend = 0, frame = 0
 288              		@ frame_needed = 0, uses_anonymous_args = 0
 289 0000 08B5     		push	{r3, lr}
 290              		.cfi_def_cfa_offset 8
 291              		.cfi_offset 3, -8
 292              		.cfi_offset 14, -4
 124:clock_container.c ****     WIDGET__processEvent(&CLOCK_minutes, EV_KEYRIGHTLONGPRESS);
 293              		.loc 1 124 0
 294 0002 0321     		movs	r1, #3
 295 0004 0148     		ldr	r0, .L35
 296 0006 FFF7FEFF 		bl	WIDGET__processEvent
 297              	.LVL8:
 298 000a 08BD     		pop	{r3, pc}
 299              	.L36:
 300              		.align	2
 301              	.L35:
 302 000c 00000000 		.word	CLOCK_minutes
 303              		.cfi_endproc
 304              	.LFE142:
 305              		.size	CLOCK__dispatch_KRLP_Min, .-CLOCK__dispatch_KRLP_Min
 306              		.section	.text.CLOCK__dispatch_250MS_Min,"ax",%progbits
 307              		.align	2
 308              		.global	CLOCK__dispatch_250MS_Min
 309              		.thumb
 310              		.thumb_func
 311              		.type	CLOCK__dispatch_250MS_Min, %function
 312              	CLOCK__dispatch_250MS_Min:
 313              	.LFB143:
 125:clock_container.c **** }
 126:clock_container.c **** 
 127:clock_container.c **** void CLOCK__dispatch_250MS_Min(void) {
 314              		.loc 1 127 0
 315              		.cfi_startproc
 316              		@ args = 0, pretend = 0, frame = 0
 317              		@ frame_needed = 0, uses_anonymous_args = 0
 318 0000 08B5     		push	{r3, lr}
 319              		.cfi_def_cfa_offset 8
 320              		.cfi_offset 3, -8
 321              		.cfi_offset 14, -4
 128:clock_container.c ****     WIDGET__processEvent(&CLOCK_minutes, EV_250MS);
 322              		.loc 1 128 0
 323 0002 0421     		movs	r1, #4
 324 0004 0148     		ldr	r0, .L39
 325 0006 FFF7FEFF 		bl	WIDGET__processEvent
 326              	.LVL9:
 327 000a 08BD     		pop	{r3, pc}
 328              	.L40:
ARM GAS  C:\Users\bolob\AppData\Local\Temp\ccxlCnWg.s 			page 9


 329              		.align	2
 330              	.L39:
 331 000c 00000000 		.word	CLOCK_minutes
 332              		.cfi_endproc
 333              	.LFE143:
 334              		.size	CLOCK__dispatch_250MS_Min, .-CLOCK__dispatch_250MS_Min
 335              		.section	.text.CONTAINER_processEvent,"ax",%progbits
 336              		.align	2
 337              		.global	CONTAINER_processEvent
 338              		.thumb
 339              		.thumb_func
 340              		.type	CONTAINER_processEvent, %function
 341              	CONTAINER_processEvent:
 342              	.LFB133:
  52:clock_container.c ****     for (uint8_t i = 0; i < CLOCK_Container_Transitions_Size; ++i) {
 343              		.loc 1 52 0
 344              		.cfi_startproc
 345              		@ args = 0, pretend = 0, frame = 0
 346              		@ frame_needed = 0, uses_anonymous_args = 0
 347              	.LVL10:
 348 0000 2DE9F047 		push	{r4, r5, r6, r7, r8, r9, r10, lr}
 349              		.cfi_def_cfa_offset 32
 350              		.cfi_offset 4, -32
 351              		.cfi_offset 5, -28
 352              		.cfi_offset 6, -24
 353              		.cfi_offset 7, -20
 354              		.cfi_offset 8, -16
 355              		.cfi_offset 9, -12
 356              		.cfi_offset 10, -8
 357              		.cfi_offset 14, -4
 358 0004 8246     		mov	r10, r0
 359 0006 8946     		mov	r9, r1
 360              	.LVL11:
 361              	.LBB2:
  53:clock_container.c ****         if (CLOCK_Container_Transitions[i].currentState == *currentState) {
 362              		.loc 1 53 0
 363 0008 0026     		movs	r6, #0
 364 000a 29E0     		b	.L42
 365              	.LVL12:
 366              	.L50:
  54:clock_container.c ****             const STATE_stateInnerTransitionTable_t* table = CLOCK_Container_Transitions[i].transit
 367              		.loc 1 54 0
 368 000c 06EB4602 		add	r2, r6, r6, lsl #1
 369 0010 9300     		lsls	r3, r2, #2
 370 0012 154A     		ldr	r2, .L52
 371 0014 D258     		ldr	r2, [r2, r3]
 372 0016 9AF80030 		ldrb	r3, [r10]	@ zero_extendqisi2
 373 001a 9A42     		cmp	r2, r3
 374 001c 1ED1     		bne	.L43
 375              	.LBB3:
  55:clock_container.c ****             uint16_t size = CLOCK_Container_Transitions[i].tableSize;
 376              		.loc 1 55 0
 377 001e 1248     		ldr	r0, .L52
 378 0020 7300     		lsls	r3, r6, #1
 379 0022 9A19     		adds	r2, r3, r6
 380 0024 9100     		lsls	r1, r2, #2
 381 0026 0144     		add	r1, r1, r0
ARM GAS  C:\Users\bolob\AppData\Local\Temp\ccxlCnWg.s 			page 10


 382 0028 4D68     		ldr	r5, [r1, #4]
 383              	.LVL13:
  56:clock_container.c **** 
 384              		.loc 1 56 0
 385 002a B1F80880 		ldrh	r8, [r1, #8]
 386              	.LVL14:
 387              	.LBB4:
  58:clock_container.c ****                 if (table[j].event == event) {
 388              		.loc 1 58 0
 389 002e 0024     		movs	r4, #0
 390 0030 12E0     		b	.L44
 391              	.LVL15:
 392              	.L49:
  59:clock_container.c ****                     if (table[j].guard == NULL || table[j].guard()) {
 393              		.loc 1 59 0
 394 0032 2301     		lsls	r3, r4, #4
 395 0034 EF18     		adds	r7, r5, r3
 396 0036 EB5C     		ldrb	r3, [r5, r3]	@ zero_extendqisi2
 397 0038 4B45     		cmp	r3, r9
 398 003a 0BD1     		bne	.L45
  60:clock_container.c ****                         if (table[j].action) {
 399              		.loc 1 60 0
 400 003c BB68     		ldr	r3, [r7, #8]
 401 003e 0BB1     		cbz	r3, .L46
  60:clock_container.c ****                         if (table[j].action) {
 402              		.loc 1 60 0 is_stmt 0 discriminator 1
 403 0040 9847     		blx	r3
 404              	.LVL16:
 405 0042 38B1     		cbz	r0, .L45
 406              	.L46:
  61:clock_container.c ****                             table[j].action();
 407              		.loc 1 61 0 is_stmt 1
 408 0044 FB68     		ldr	r3, [r7, #12]
 409 0046 03B1     		cbz	r3, .L47
  62:clock_container.c ****                         }
 410              		.loc 1 62 0
 411 0048 9847     		blx	r3
 412              	.LVL17:
 413              	.L47:
  64:clock_container.c ****                         return;
 414              		.loc 1 64 0
 415 004a 7B68     		ldr	r3, [r7, #4]
 416 004c 8AF80030 		strb	r3, [r10]
  65:clock_container.c ****                     }
 417              		.loc 1 65 0
 418 0050 BDE8F087 		pop	{r4, r5, r6, r7, r8, r9, r10, pc}
 419              	.LVL18:
 420              	.L45:
  58:clock_container.c ****                 if (table[j].event == event) {
 421              		.loc 1 58 0 discriminator 2
 422 0054 0134     		adds	r4, r4, #1
 423              	.LVL19:
 424 0056 A4B2     		uxth	r4, r4
 425              	.LVL20:
 426              	.L44:
  58:clock_container.c ****                 if (table[j].event == event) {
 427              		.loc 1 58 0 is_stmt 0 discriminator 1
ARM GAS  C:\Users\bolob\AppData\Local\Temp\ccxlCnWg.s 			page 11


 428 0058 4445     		cmp	r4, r8
 429 005a EAD3     		bcc	.L49
 430              	.LVL21:
 431              	.L43:
 432              	.LBE4:
 433              	.LBE3:
  53:clock_container.c ****         if (CLOCK_Container_Transitions[i].currentState == *currentState) {
 434              		.loc 1 53 0 is_stmt 1 discriminator 2
 435 005c 0136     		adds	r6, r6, #1
 436              	.LVL22:
 437 005e F6B2     		uxtb	r6, r6
 438              	.LVL23:
 439              	.L42:
  53:clock_container.c ****         if (CLOCK_Container_Transitions[i].currentState == *currentState) {
 440              		.loc 1 53 0 is_stmt 0 discriminator 1
 441 0060 022E     		cmp	r6, #2
 442 0062 D3D9     		bls	.L50
 443 0064 BDE8F087 		pop	{r4, r5, r6, r7, r8, r9, r10, pc}
 444              	.LVL24:
 445              	.L53:
 446              		.align	2
 447              	.L52:
 448 0068 00000000 		.word	.LANCHOR0
 449              	.LBE2:
 450              		.cfi_endproc
 451              	.LFE133:
 452              		.size	CONTAINER_processEvent, .-CONTAINER_processEvent
 453              		.global	CLOCK_Container_Transitions_Size
 454              		.global	CLOCK_Container_Transitions
 455              		.global	STATE_CLOCK_C_ISEDITINGMINUTES_Transitions
 456              		.global	STATE_CLOCK_C_ISEDITINGHOURS_Transitions
 457              		.global	STATE_CLOCK_C_ISDISPLAYING_Transitions
 458              		.section	.rodata
 459              		.align	2
 460              		.set	.LANCHOR0,. + 0
 461              		.type	CLOCK_Container_Transitions, %object
 462              		.size	CLOCK_Container_Transitions, 36
 463              	CLOCK_Container_Transitions:
 464 0000 00000000 		.word	0
 465 0004 00000000 		.word	STATE_CLOCK_C_ISDISPLAYING_Transitions
 466 0008 0200     		.short	2
 467 000a 0000     		.space	2
 468 000c 02000000 		.word	2
 469 0010 00000000 		.word	STATE_CLOCK_C_ISEDITINGHOURS_Transitions
 470 0014 0400     		.short	4
 471 0016 0000     		.space	2
 472 0018 01000000 		.word	1
 473 001c 00000000 		.word	STATE_CLOCK_C_ISEDITINGMINUTES_Transitions
 474 0020 0400     		.short	4
 475 0022 0000     		.space	2
 476              		.type	CLOCK_Container_Transitions_Size, %object
 477              		.size	CLOCK_Container_Transitions_Size, 2
 478              	CLOCK_Container_Transitions_Size:
 479 0024 0300     		.short	3
 480 0026 0000     		.space	2
 481              		.type	STATE_CLOCK_C_ISEDITINGMINUTES_Transitions, %object
 482              		.size	STATE_CLOCK_C_ISEDITINGMINUTES_Transitions, 64
ARM GAS  C:\Users\bolob\AppData\Local\Temp\ccxlCnWg.s 			page 12


 483              	STATE_CLOCK_C_ISEDITINGMINUTES_Transitions:
 484 0028 02       		.byte	2
 485 0029 000000   		.space	3
 486 002c 00000000 		.word	0
 487 0030 00000000 		.word	0
 488 0034 00000000 		.word	CLOCK__dispatch_KL_Min
 489 0038 01       		.byte	1
 490 0039 000000   		.space	3
 491 003c 01000000 		.word	1
 492 0040 00000000 		.word	0
 493 0044 00000000 		.word	CLOCK__dispatch_KR_Min
 494 0048 03       		.byte	3
 495 0049 000000   		.space	3
 496 004c 01000000 		.word	1
 497 0050 00000000 		.word	0
 498 0054 00000000 		.word	CLOCK__dispatch_KRLP_Min
 499 0058 04       		.byte	4
 500 0059 000000   		.space	3
 501 005c 01000000 		.word	1
 502 0060 00000000 		.word	0
 503 0064 00000000 		.word	CLOCK__dispatch_250MS_Min
 504              		.type	STATE_CLOCK_C_ISEDITINGHOURS_Transitions, %object
 505              		.size	STATE_CLOCK_C_ISEDITINGHOURS_Transitions, 64
 506              	STATE_CLOCK_C_ISEDITINGHOURS_Transitions:
 507 0068 02       		.byte	2
 508 0069 000000   		.space	3
 509 006c 01000000 		.word	1
 510 0070 00000000 		.word	0
 511 0074 00000000 		.word	CLOCK__dispatch_KL_HoursMin
 512 0078 01       		.byte	1
 513 0079 000000   		.space	3
 514 007c 02000000 		.word	2
 515 0080 00000000 		.word	0
 516 0084 00000000 		.word	CLOCK__dispatch_KR_Hours
 517 0088 03       		.byte	3
 518 0089 000000   		.space	3
 519 008c 02000000 		.word	2
 520 0090 00000000 		.word	0
 521 0094 00000000 		.word	CLOCK__dispatch_KRLP_Hours
 522 0098 04       		.byte	4
 523 0099 000000   		.space	3
 524 009c 02000000 		.word	2
 525 00a0 00000000 		.word	0
 526 00a4 00000000 		.word	CLOCK__dispatch_250MS_Hours
 527              		.type	STATE_CLOCK_C_ISDISPLAYING_Transitions, %object
 528              		.size	STATE_CLOCK_C_ISDISPLAYING_Transitions, 32
 529              	STATE_CLOCK_C_ISDISPLAYING_Transitions:
 530 00a8 02       		.byte	2
 531 00a9 000000   		.space	3
 532 00ac 02000000 		.word	2
 533 00b0 00000000 		.word	0
 534 00b4 00000000 		.word	CLOCK__dispatch_KL_Hours
 535 00b8 05       		.byte	5
 536 00b9 000000   		.space	3
 537 00bc 00000000 		.word	0
 538 00c0 00000000 		.word	0
 539 00c4 00000000 		.word	CLOCK__increment1Minute
ARM GAS  C:\Users\bolob\AppData\Local\Temp\ccxlCnWg.s 			page 13


 540              		.text
 541              	.Letext0:
 542              		.file 2 "c:\\program files (x86)\\cypress\\psoc creator\\4.4\\psoc creator\\import\\gnu\\arm\\5.4.
 543              		.file 3 "c:\\program files (x86)\\cypress\\psoc creator\\4.4\\psoc creator\\import\\gnu\\arm\\5.4.
 544              		.file 4 "Generated_Source\\PSoC5/ErikaOS_1_common_ee_types.inc"
 545              		.file 5 "Generated_Source\\PSoC5/ErikaOS_1_cortex_mx_ee_cpu.inc"
 546              		.file 6 ".\\source\\bsw/global.h"
 547              		.file 7 ".\\source\\rte/sc_event_type.h"
 548              		.file 8 "clock_widget.h"
 549              		.file 9 "clock_common.h"
 550              		.file 10 "clock_container.h"
 551              		.file 11 "Generated_Source\\PSoC5/ErikaOS_1_ee_oo_intfunc.inc"
 552              		.file 12 "Generated_Source\\PSoC5/ErikaOS_1_cortex_mx_ee_context.inc"
 553              		.file 13 "Generated_Source\\PSoC5/ErikaOS_1_common_ee_primitives.inc"
 554              		.file 14 "Generated_Source\\PSoC5/core_cm3.h"
 555              		.file 15 ".\\source\\asw/swc_clock.h"