ARM GAS  C:\Users\bolob\AppData\Local\Temp\cccgARgO.s 			page 1


   1              		.syntax unified
   2              		.cpu cortex-m3
   3              		.fpu softvfp
   4              		.eabi_attribute 20, 1
   5              		.eabi_attribute 21, 1
   6              		.eabi_attribute 23, 3
   7              		.eabi_attribute 24, 1
   8              		.eabi_attribute 25, 1
   9              		.eabi_attribute 26, 1
  10              		.eabi_attribute 30, 1
  11              		.eabi_attribute 34, 1
  12              		.eabi_attribute 18, 4
  13              		.thumb
  14              		.syntax unified
  15              		.file	"sc_event_type.c"
  16              		.text
  17              	.Ltext0:
  18              		.cfi_sections	.debug_frame
  19              		.section	.text.SC_EVENT_driverIn,"ax",%progbits
  20              		.align	2
  21              		.global	SC_EVENT_driverIn
  22              		.thumb
  23              		.thumb_func
  24              		.type	SC_EVENT_driverIn, %function
  25              	SC_EVENT_driverIn:
  26              	.LFB110:
  27              		.file 1 "source\\rte\\sc_event_type.c"
   1:source\rte/sc_event_type.c **** /*
   2:source\rte/sc_event_type.c ****  * Filename: sc_event_type.c
   3:source\rte/sc_event_type.c ****  *
   4:source\rte/sc_event_type.c ****  * Author: Autogenerated by H-DA RTE Generator, (c) Prof. Fromm
   5:source\rte/sc_event_type.c ****  *
   6:source\rte/sc_event_type.c ****  * description: Signalclass
   7:source\rte/sc_event_type.c ****  * name: sc_event
   8:source\rte/sc_event_type.c ****  * shortname: event
   9:source\rte/sc_event_type.c ****  *
  10:source\rte/sc_event_type.c ****  */
  11:source\rte/sc_event_type.c **** 
  12:source\rte/sc_event_type.c **** #include "project.h"
  13:source\rte/sc_event_type.c **** #include "global.h"
  14:source\rte/sc_event_type.c **** #include "rte.h"
  15:source\rte/sc_event_type.c **** #include "rte_types.h"
  16:source\rte/sc_event_type.c **** #include "sc_event_type.h"
  17:source\rte/sc_event_type.c **** 
  18:source\rte/sc_event_type.c **** 
  19:source\rte/sc_event_type.c **** 
  20:source\rte/sc_event_type.c **** /* USER CODE START SC_EVENT_INCLUDE */
  21:source\rte/sc_event_type.c **** #include "Button_3.h"
  22:source\rte/sc_event_type.c **** #include "Button_4.h"
  23:source\rte/sc_event_type.c **** /* USER CODE END SC_EVENT_INCLUDE */
  24:source\rte/sc_event_type.c **** 
  25:source\rte/sc_event_type.c **** 
  26:source\rte/sc_event_type.c **** 
  27:source\rte/sc_event_type.c **** 
  28:source\rte/sc_event_type.c **** /* USER CODE START SC_EVENT_USERDEFINITIONS */
  29:source\rte/sc_event_type.c **** #define LONG_PRESS_THRESHOLD    20      // 20 x 50ms = 1 second
  30:source\rte/sc_event_type.c **** #define EV_1MIN_THRESHOLD       1200    // 1200 x 50ms = 1 minute
ARM GAS  C:\Users\bolob\AppData\Local\Temp\cccgARgO.s 			page 2


  31:source\rte/sc_event_type.c **** #define EV_250MS_THRESHOLD      5       // 20 x 50ms = 1 second
  32:source\rte/sc_event_type.c **** /* USER CODE END SC_EVENT_USERDEFINITIONS */
  33:source\rte/sc_event_type.c **** 
  34:source\rte/sc_event_type.c **** 
  35:source\rte/sc_event_type.c **** /*****************************************************************************************
  36:source\rte/sc_event_type.c ****  *************** Port Wrapper Implementation for SC_EVENT signal  ****************
  37:source\rte/sc_event_type.c ****  *****************************************************************************************/
  38:source\rte/sc_event_type.c ****  
  39:source\rte/sc_event_type.c ****  
  40:source\rte/sc_event_type.c **** 
  41:source\rte/sc_event_type.c **** /**
  42:source\rte/sc_event_type.c ****  * Default IN driver API
  43:source\rte/sc_event_type.c ****  */
  44:source\rte/sc_event_type.c **** inline RC_t SC_EVENT_driverIn(SC_EVENT_data_t *const data)
  45:source\rte/sc_event_type.c **** {
  28              		.loc 1 45 0
  29              		.cfi_startproc
  30              		@ args = 0, pretend = 0, frame = 0
  31              		@ frame_needed = 0, uses_anonymous_args = 0
  32              	.LVL0:
  33 0000 38B5     		push	{r3, r4, r5, lr}
  34              		.cfi_def_cfa_offset 16
  35              		.cfi_offset 3, -16
  36              		.cfi_offset 4, -12
  37              		.cfi_offset 5, -8
  38              		.cfi_offset 14, -4
  39 0002 0446     		mov	r4, r0
  46:source\rte/sc_event_type.c **** 	/* USER CODE START driverInSC_EVENT */
  47:source\rte/sc_event_type.c ****     static boolean_t lastButton3State = FALSE;
  48:source\rte/sc_event_type.c ****     static boolean_t lastButton4State = FALSE;
  49:source\rte/sc_event_type.c ****     static uint16_t button4PressDuration = 0;
  50:source\rte/sc_event_type.c ****     static uint16_t tick250msCounter = 0;
  51:source\rte/sc_event_type.c ****     static uint32_t tick1minCounter = 0;
  52:source\rte/sc_event_type.c ****     
  53:source\rte/sc_event_type.c ****     boolean_t currentButton3State = Button_3_Read();
  40              		.loc 1 53 0
  41 0004 FFF7FEFF 		bl	Button_3_Read
  42              	.LVL1:
  43 0008 0546     		mov	r5, r0
  44              	.LVL2:
  54:source\rte/sc_event_type.c ****     boolean_t currentButton4State = Button_4_Read();
  45              		.loc 1 54 0
  46 000a FFF7FEFF 		bl	Button_4_Read
  47              	.LVL3:
  55:source\rte/sc_event_type.c **** 
  56:source\rte/sc_event_type.c ****     data->m_ev = EV_NONE;
  48              		.loc 1 56 0
  49 000e 0023     		movs	r3, #0
  50 0010 2370     		strb	r3, [r4]
  57:source\rte/sc_event_type.c **** 
  58:source\rte/sc_event_type.c ****     if (currentButton3State && !lastButton3State) {
  51              		.loc 1 58 0
  52 0012 25B1     		cbz	r5, .L2
  53              		.loc 1 58 0 is_stmt 0 discriminator 1
  54 0014 1A4B     		ldr	r3, .L10
  55 0016 1B78     		ldrb	r3, [r3]	@ zero_extendqisi2
  56 0018 0BB9     		cbnz	r3, .L2
ARM GAS  C:\Users\bolob\AppData\Local\Temp\cccgARgO.s 			page 3


  59:source\rte/sc_event_type.c ****         data->m_ev = EV_KEYLEFT;
  57              		.loc 1 59 0 is_stmt 1
  58 001a 0223     		movs	r3, #2
  59 001c 2370     		strb	r3, [r4]
  60              	.L2:
  60:source\rte/sc_event_type.c ****     }
  61:source\rte/sc_event_type.c **** 
  62:source\rte/sc_event_type.c ****     if (currentButton4State) {
  61              		.loc 1 62 0
  62 001e 20B1     		cbz	r0, .L3
  63:source\rte/sc_event_type.c ****         button4PressDuration++;
  63              		.loc 1 63 0
  64 0020 174A     		ldr	r2, .L10
  65 0022 5388     		ldrh	r3, [r2, #2]
  66 0024 0133     		adds	r3, r3, #1
  67 0026 5380     		strh	r3, [r2, #2]	@ movhi
  68 0028 0FE0     		b	.L4
  69              	.L3:
  64:source\rte/sc_event_type.c ****     } else {
  65:source\rte/sc_event_type.c ****         if (lastButton4State) {
  70              		.loc 1 65 0
  71 002a 154B     		ldr	r3, .L10
  72 002c 1B79     		ldrb	r3, [r3, #4]	@ zero_extendqisi2
  73 002e 63B1     		cbz	r3, .L4
  66:source\rte/sc_event_type.c ****             if (button4PressDuration >= LONG_PRESS_THRESHOLD) {
  74              		.loc 1 66 0
  75 0030 134B     		ldr	r3, .L10
  76 0032 5B88     		ldrh	r3, [r3, #2]
  77 0034 132B     		cmp	r3, #19
  78 0036 02D9     		bls	.L5
  67:source\rte/sc_event_type.c ****                 data->m_ev = EV_KEYRIGHTLONGPRESS;
  79              		.loc 1 67 0
  80 0038 0323     		movs	r3, #3
  81 003a 2370     		strb	r3, [r4]
  82 003c 02E0     		b	.L6
  83              	.L5:
  68:source\rte/sc_event_type.c ****             } else if (button4PressDuration > 0) {
  84              		.loc 1 68 0
  85 003e 0BB1     		cbz	r3, .L6
  69:source\rte/sc_event_type.c ****                 data->m_ev = EV_KEYRIGHT;
  86              		.loc 1 69 0
  87 0040 0123     		movs	r3, #1
  88 0042 2370     		strb	r3, [r4]
  89              	.L6:
  70:source\rte/sc_event_type.c ****             }
  71:source\rte/sc_event_type.c ****             button4PressDuration = 0;
  90              		.loc 1 71 0
  91 0044 0022     		movs	r2, #0
  92 0046 0E4B     		ldr	r3, .L10
  93 0048 5A80     		strh	r2, [r3, #2]	@ movhi
  94              	.L4:
  72:source\rte/sc_event_type.c ****         }
  73:source\rte/sc_event_type.c ****     }
  74:source\rte/sc_event_type.c **** 
  75:source\rte/sc_event_type.c ****     lastButton3State = currentButton3State;
  95              		.loc 1 75 0
  96 004a 0D4B     		ldr	r3, .L10
ARM GAS  C:\Users\bolob\AppData\Local\Temp\cccgARgO.s 			page 4


  97 004c 1D70     		strb	r5, [r3]
  76:source\rte/sc_event_type.c ****     lastButton4State = currentButton4State;
  98              		.loc 1 76 0
  99 004e 1871     		strb	r0, [r3, #4]
  77:source\rte/sc_event_type.c ****     
  78:source\rte/sc_event_type.c **** 
  79:source\rte/sc_event_type.c ****     if (tick250msCounter++ >= EV_250MS_THRESHOLD) {
 100              		.loc 1 79 0
 101 0050 DA88     		ldrh	r2, [r3, #6]
 102 0052 511C     		adds	r1, r2, #1
 103 0054 D980     		strh	r1, [r3, #6]	@ movhi
 104 0056 042A     		cmp	r2, #4
 105 0058 04D9     		bls	.L7
  80:source\rte/sc_event_type.c ****         data->m_ev = EV_250MS;
 106              		.loc 1 80 0
 107 005a 0423     		movs	r3, #4
 108 005c 2370     		strb	r3, [r4]
  81:source\rte/sc_event_type.c ****         tick250msCounter = 0;
 109              		.loc 1 81 0
 110 005e 0022     		movs	r2, #0
 111 0060 074B     		ldr	r3, .L10
 112 0062 DA80     		strh	r2, [r3, #6]	@ movhi
 113              	.L7:
  82:source\rte/sc_event_type.c ****     }
  83:source\rte/sc_event_type.c ****     
  84:source\rte/sc_event_type.c ****     if (tick1minCounter++ >= EV_1MIN_THRESHOLD) {
 114              		.loc 1 84 0
 115 0064 064A     		ldr	r2, .L10
 116 0066 9368     		ldr	r3, [r2, #8]
 117 0068 591C     		adds	r1, r3, #1
 118 006a 9160     		str	r1, [r2, #8]
 119 006c B3F5966F 		cmp	r3, #1200
 120 0070 04D3     		bcc	.L8
  85:source\rte/sc_event_type.c ****         data->m_ev = EV_1MIN;
 121              		.loc 1 85 0
 122 0072 0523     		movs	r3, #5
 123 0074 2370     		strb	r3, [r4]
  86:source\rte/sc_event_type.c ****         tick1minCounter = 0;
 124              		.loc 1 86 0
 125 0076 0022     		movs	r2, #0
 126 0078 014B     		ldr	r3, .L10
 127 007a 9A60     		str	r2, [r3, #8]
 128              	.L8:
  87:source\rte/sc_event_type.c ****     }
  88:source\rte/sc_event_type.c ****     
  89:source\rte/sc_event_type.c **** 	return RC_SUCCESS;
  90:source\rte/sc_event_type.c **** 	/* USER CODE END driverInSC_EVENT */
  91:source\rte/sc_event_type.c **** }
 129              		.loc 1 91 0
 130 007c 0020     		movs	r0, #0
 131              	.LVL4:
 132 007e 38BD     		pop	{r3, r4, r5, pc}
 133              	.LVL5:
 134              	.L11:
 135              		.align	2
 136              	.L10:
 137 0080 00000000 		.word	.LANCHOR0
ARM GAS  C:\Users\bolob\AppData\Local\Temp\cccgARgO.s 			page 5


 138              		.cfi_endproc
 139              	.LFE110:
 140              		.size	SC_EVENT_driverIn, .-SC_EVENT_driverIn
 141              		.section	.text.SC_EVENT_driverOut,"ax",%progbits
 142              		.align	2
 143              		.global	SC_EVENT_driverOut
 144              		.thumb
 145              		.thumb_func
 146              		.type	SC_EVENT_driverOut, %function
 147              	SC_EVENT_driverOut:
 148              	.LFB111:
  92:source\rte/sc_event_type.c **** /**
  93:source\rte/sc_event_type.c ****  * Default OUT driver API
  94:source\rte/sc_event_type.c ****  */
  95:source\rte/sc_event_type.c **** inline RC_t SC_EVENT_driverOut(const SC_EVENT_data_t  *const data)
  96:source\rte/sc_event_type.c **** {
 149              		.loc 1 96 0
 150              		.cfi_startproc
 151              		@ args = 0, pretend = 0, frame = 0
 152              		@ frame_needed = 0, uses_anonymous_args = 0
 153              		@ link register save eliminated.
 154              	.LVL6:
  97:source\rte/sc_event_type.c **** 	/* USER CODE START driverOutSC_EVENT */
  98:source\rte/sc_event_type.c **** 
  99:source\rte/sc_event_type.c **** 	//Scale application data to drive format
 100:source\rte/sc_event_type.c **** 
 101:source\rte/sc_event_type.c **** 	//Write scaled data to driver
 102:source\rte/sc_event_type.c **** 
 103:source\rte/sc_event_type.c **** 	return RC_SUCCESS;
 104:source\rte/sc_event_type.c **** 	/* USER CODE END driverOutSC_EVENT */
 105:source\rte/sc_event_type.c **** }
 155              		.loc 1 105 0
 156 0000 0020     		movs	r0, #0
 157              	.LVL7:
 158 0002 7047     		bx	lr
 159              		.cfi_endproc
 160              	.LFE111:
 161              		.size	SC_EVENT_driverOut, .-SC_EVENT_driverOut
 162              		.bss
 163              		.align	2
 164              		.set	.LANCHOR0,. + 0
 165              		.type	lastButton3State.6447, %object
 166              		.size	lastButton3State.6447, 1
 167              	lastButton3State.6447:
 168 0000 00       		.space	1
 169 0001 00       		.space	1
 170              		.type	button4PressDuration.6449, %object
 171              		.size	button4PressDuration.6449, 2
 172              	button4PressDuration.6449:
 173 0002 0000     		.space	2
 174              		.type	lastButton4State.6448, %object
 175              		.size	lastButton4State.6448, 1
 176              	lastButton4State.6448:
 177 0004 00       		.space	1
 178 0005 00       		.space	1
 179              		.type	tick250msCounter.6450, %object
 180              		.size	tick250msCounter.6450, 2
ARM GAS  C:\Users\bolob\AppData\Local\Temp\cccgARgO.s 			page 6


 181              	tick250msCounter.6450:
 182 0006 0000     		.space	2
 183              		.type	tick1minCounter.6451, %object
 184              		.size	tick1minCounter.6451, 4
 185              	tick1minCounter.6451:
 186 0008 00000000 		.space	4
 187              		.text
 188              	.Letext0:
 189              		.file 2 "c:\\program files (x86)\\cypress\\psoc creator\\4.4\\psoc creator\\import\\gnu\\arm\\5.4.
 190              		.file 3 "c:\\program files (x86)\\cypress\\psoc creator\\4.4\\psoc creator\\import\\gnu\\arm\\5.4.
 191              		.file 4 "Generated_Source\\PSoC5/ErikaOS_1_common_ee_types.inc"
 192              		.file 5 "Generated_Source\\PSoC5/ErikaOS_1_cortex_mx_ee_cpu.inc"
 193              		.file 6 ".\\source\\bsw/global.h"
 194              		.file 7 "source\\rte\\sc_event_type.h"
 195              		.file 8 "Generated_Source\\PSoC5/ErikaOS_1_ee_oo_intfunc.inc"
 196              		.file 9 "Generated_Source\\PSoC5/ErikaOS_1_cortex_mx_ee_context.inc"
 197              		.file 10 "Generated_Source\\PSoC5/ErikaOS_1_common_ee_primitives.inc"
 198              		.file 11 "Generated_Source\\PSoC5/core_cm3.h"
 199              		.file 12 "Generated_Source\\PSoC5/Button_3.h"
 200              		.file 13 "Generated_Source\\PSoC5/Button_4.h"