ARM GAS  C:\Users\bolob\AppData\Local\Temp\cchrnVjX.s 			page 1


   1              		.syntax unified
   2              		.cpu cortex-m3
   3              		.fpu softvfp
   4              		.eabi_attribute 20, 1
   5              		.eabi_attribute 21, 1
   6              		.eabi_attribute 23, 3
   7              		.eabi_attribute 24, 1
   8              		.eabi_attribute 25, 1
   9              		.eabi_attribute 26, 1
  10              		.eabi_attribute 30, 1
  11              		.eabi_attribute 34, 1
  12              		.eabi_attribute 18, 4
  13              		.thumb
  14              		.syntax unified
  15              		.file	"swc_clock.c"
  16              		.text
  17              	.Ltext0:
  18              		.cfi_sections	.debug_frame
  19              		.section	.text.CLOCK_input_run,"ax",%progbits
  20              		.align	2
  21              		.global	CLOCK_input_run
  22              		.thumb
  23              		.thumb_func
  24              		.type	CLOCK_input_run, %function
  25              	CLOCK_input_run:
  26              	.LFB133:
  27              		.file 1 "source\\asw\\swc_clock.c"
   1:source\asw/swc_clock.c **** /*
   2:source\asw/swc_clock.c ****  * Filename: swc_clock.c
   3:source\asw/swc_clock.c ****  *
   4:source\asw/swc_clock.c ****  * Author: Autogenerated by H-DA RTE Generator, (c) Prof. Fromm
   5:source\asw/swc_clock.c ****  *
   6:source\asw/swc_clock.c ****  * description: Software component representing the functionality of the clock
   7:source\asw/swc_clock.c ****  * name: swc_Clock
   8:source\asw/swc_clock.c ****  * shortname: Clock
   9:source\asw/swc_clock.c ****  *
  10:source\asw/swc_clock.c ****  */
  11:source\asw/swc_clock.c **** 
  12:source\asw/swc_clock.c **** #include "project.h"
  13:source\asw/swc_clock.c **** #include "global.h"
  14:source\asw/swc_clock.c **** #include "rte.h"
  15:source\asw/swc_clock.c **** #include "rte_types.h"
  16:source\asw/swc_clock.c **** #include "swc_clock.h"
  17:source\asw/swc_clock.c **** 
  18:source\asw/swc_clock.c **** 
  19:source\asw/swc_clock.c **** 
  20:source\asw/swc_clock.c **** /* USER CODE START SWC_CLOCK_INCLUDE */
  21:source\asw/swc_clock.c **** #include "green_LED.h"
  22:source\asw/swc_clock.c **** #include "red_LED.h"
  23:source\asw/swc_clock.c **** #include "yellow_LED.h"
  24:source\asw/swc_clock.c **** /* USER CODE END SWC_CLOCK_INCLUDE */
  25:source\asw/swc_clock.c **** 
  26:source\asw/swc_clock.c **** 
  27:source\asw/swc_clock.c **** #include "sp_common.h"
  28:source\asw/swc_clock.c **** 
  29:source\asw/swc_clock.c **** /* USER CODE START SWC_CLOCK_USERDEFINITIONS */
  30:source\asw/swc_clock.c **** uint8_t g_hours = 0;
ARM GAS  C:\Users\bolob\AppData\Local\Temp\cchrnVjX.s 			page 2


  31:source\asw/swc_clock.c **** uint8_t g_minutes = 0;
  32:source\asw/swc_clock.c **** /* USER CODE END SWC_CLOCK_USERDEFINITIONS */
  33:source\asw/swc_clock.c **** 
  34:source\asw/swc_clock.c **** 
  35:source\asw/swc_clock.c **** 
  36:source\asw/swc_clock.c **** /*
  37:source\asw/swc_clock.c ****  * component: swc_Clock
  38:source\asw/swc_clock.c ****  * cycletime: 50
  39:source\asw/swc_clock.c ****  * description: Runnable
  40:source\asw/swc_clock.c ****  * events: 
  41:source\asw/swc_clock.c ****  * name: CLOCK_input_run
  42:source\asw/swc_clock.c ****  * shortname: input
  43:source\asw/swc_clock.c ****  * signalIN: 
  44:source\asw/swc_clock.c ****  * signalOUT: so_event
  45:source\asw/swc_clock.c ****  * task: tsk_io
  46:source\asw/swc_clock.c ****  */
  47:source\asw/swc_clock.c **** void CLOCK_input_run(RTE_event ev){
  28              		.loc 1 47 0
  29              		.cfi_startproc
  30              		@ args = 0, pretend = 0, frame = 8
  31              		@ frame_needed = 0, uses_anonymous_args = 0
  32              	.LVL0:
  33              	.LBB27:
  34              	.LBB28:
  35              		.file 2 ".\\source\\rte/sc_event.h"
   1:.\source\rte/sc_event.h **** 
   2:.\source\rte/sc_event.h **** 
   3:.\source\rte/sc_event.h **** /**
   4:.\source\rte/sc_event.h ****  *  file    SC_EVENT_signal.h
   5:.\source\rte/sc_event.h ****  *
   6:.\source\rte/sc_event.h ****  *  brief   signal base class for signal sc_event
   7:.\source\rte/sc_event.h ****  *
   8:.\source\rte/sc_event.h ****  *  author  Autogenerated, Peter Fromm       <peter.fromm@h-da.de>
   9:.\source\rte/sc_event.h ****  *
  10:.\source\rte/sc_event.h ****  * description: Signalclass
  11:.\source\rte/sc_event.h ****  * name: sc_event
  12:.\source\rte/sc_event.h ****  * shortname: event
  13:.\source\rte/sc_event.h ****  *
  14:.\source\rte/sc_event.h ****  */
  15:.\source\rte/sc_event.h **** 
  16:.\source\rte/sc_event.h **** 
  17:.\source\rte/sc_event.h **** 
  18:.\source\rte/sc_event.h **** #ifndef SC_EVENT_SIGNAL_H_INCLUDED
  19:.\source\rte/sc_event.h **** #define SC_EVENT_SIGNAL_H_INCLUDED
  20:.\source\rte/sc_event.h **** 
  21:.\source\rte/sc_event.h **** /*================================================[ public includes  ]=============================
  22:.\source\rte/sc_event.h **** #include "global.h"
  23:.\source\rte/sc_event.h **** #include "project.h"
  24:.\source\rte/sc_event.h **** #include "rte.h"
  25:.\source\rte/sc_event.h **** #include "rte_types.h"
  26:.\source\rte/sc_event.h **** 
  27:.\source\rte/sc_event.h **** #include "sc_event_type.h"
  28:.\source\rte/sc_event.h **** 
  29:.\source\rte/sc_event.h **** 
  30:.\source\rte/sc_event.h **** /**************************************************************************************************
  31:.\source\rte/sc_event.h **** /* The driver API block																						*/
  32:.\source\rte/sc_event.h **** /**************************************************************************************************
ARM GAS  C:\Users\bolob\AppData\Local\Temp\cchrnVjX.s 			page 3


  33:.\source\rte/sc_event.h ****                                                                                                    
  34:.\source\rte/sc_event.h **** /**
  35:.\source\rte/sc_event.h ****  *  Definition of function types for driver interfaces.
  36:.\source\rte/sc_event.h ****  *  I-Port
  37:.\source\rte/sc_event.h ****  */
  38:.\source\rte/sc_event.h **** typedef RC_t (*SC_EVENT_driverIn_t)(SC_EVENT_data_t * const);
  39:.\source\rte/sc_event.h **** 
  40:.\source\rte/sc_event.h **** /**
  41:.\source\rte/sc_event.h ****  *  Definition of function types for driver interfaces.
  42:.\source\rte/sc_event.h ****  *  O-Port
  43:.\source\rte/sc_event.h ****  */
  44:.\source\rte/sc_event.h **** typedef RC_t (*SC_EVENT_driverOut_t)( const SC_EVENT_data_t * const);
  45:.\source\rte/sc_event.h **** 
  46:.\source\rte/sc_event.h **** 
  47:.\source\rte/sc_event.h **** /**************************************************************************************************
  48:.\source\rte/sc_event.h **** /* The signal configuration API block																				*/
  49:.\source\rte/sc_event.h **** /**************************************************************************************************
  50:.\source\rte/sc_event.h **** 
  51:.\source\rte/sc_event.h **** /**
  52:.\source\rte/sc_event.h ****  * Instances of the struct SC_EVENT_cfg_t represent the signal object configuration.
  53:.\source\rte/sc_event.h ****  */
  54:.\source\rte/sc_event.h **** struct SC_EVENT_cfg_s
  55:.\source\rte/sc_event.h **** {
  56:.\source\rte/sc_event.h ****     /**
  57:.\source\rte/sc_event.h ****      * Function pointer to the input driver
  58:.\source\rte/sc_event.h ****      */
  59:.\source\rte/sc_event.h ****     SC_EVENT_driverIn_t const inDriver;
  60:.\source\rte/sc_event.h **** 
  61:.\source\rte/sc_event.h ****     /**
  62:.\source\rte/sc_event.h ****      * Function pointer to the output driver table
  63:.\source\rte/sc_event.h ****      */
  64:.\source\rte/sc_event.h ****    SC_EVENT_driverOut_t const outDriver;
  65:.\source\rte/sc_event.h ****    
  66:.\source\rte/sc_event.h ****     /**
  67:.\source\rte/sc_event.h ****      * Event onUpdate
  68:.\source\rte/sc_event.h ****      */
  69:.\source\rte/sc_event.h ****     EventMaskType const evOnUpdate;
  70:.\source\rte/sc_event.h ****     
  71:.\source\rte/sc_event.h ****     
  72:.\source\rte/sc_event.h ****     /**
  73:.\source\rte/sc_event.h ****      * Event onError
  74:.\source\rte/sc_event.h ****      */
  75:.\source\rte/sc_event.h ****     EventMaskType const evOnError;
  76:.\source\rte/sc_event.h ****     
  77:.\source\rte/sc_event.h ****     /**
  78:.\source\rte/sc_event.h ****      * Task Count onUpdate
  79:.\source\rte/sc_event.h ****      */
  80:.\source\rte/sc_event.h ****     size_t const onUpdateTaskCount;
  81:.\source\rte/sc_event.h **** 
  82:.\source\rte/sc_event.h ****     /**
  83:.\source\rte/sc_event.h ****      * Task List onUpdate
  84:.\source\rte/sc_event.h ****      */
  85:.\source\rte/sc_event.h ****     TaskTypeArray* const onUpdateTasks;
  86:.\source\rte/sc_event.h ****     
  87:.\source\rte/sc_event.h ****     /**
  88:.\source\rte/sc_event.h ****      * Task Count onError
  89:.\source\rte/sc_event.h ****      */
ARM GAS  C:\Users\bolob\AppData\Local\Temp\cchrnVjX.s 			page 4


  90:.\source\rte/sc_event.h ****     size_t const onErrorTaskCount;
  91:.\source\rte/sc_event.h **** 
  92:.\source\rte/sc_event.h ****     /**
  93:.\source\rte/sc_event.h ****      * Task List onError
  94:.\source\rte/sc_event.h ****      */
  95:.\source\rte/sc_event.h ****     TaskTypeArray* const onErrorTasks;
  96:.\source\rte/sc_event.h **** 	
  97:.\source\rte/sc_event.h **** 	
  98:.\source\rte/sc_event.h **** 	/**
  99:.\source\rte/sc_event.h **** 	 * Ressourse is active? We need an additional boolean as a ressource value 0 is valid.
 100:.\source\rte/sc_event.h **** 	 */
 101:.\source\rte/sc_event.h **** 	 boolean_t const resourceActive;
 102:.\source\rte/sc_event.h **** 	 
 103:.\source\rte/sc_event.h **** 	/**
 104:.\source\rte/sc_event.h **** 	 * Ressourse 
 105:.\source\rte/sc_event.h **** 	 */
 106:.\source\rte/sc_event.h **** 	 ResourceType const resource;
 107:.\source\rte/sc_event.h **** 
 108:.\source\rte/sc_event.h **** };                                                                                                 
 109:.\source\rte/sc_event.h **** typedef const struct SC_EVENT_cfg_s SC_EVENT_cfg_t;
 110:.\source\rte/sc_event.h ****                               
 111:.\source\rte/sc_event.h **** /**************************************************************************************************
 112:.\source\rte/sc_event.h **** /* The data interface block																							*/
 113:.\source\rte/sc_event.h **** /**************************************************************************************************
 114:.\source\rte/sc_event.h **** 
 115:.\source\rte/sc_event.h ****                                                                                                    
 116:.\source\rte/sc_event.h **** 							  
 117:.\source\rte/sc_event.h **** /**
 118:.\source\rte/sc_event.h ****  * Instances of the struct SC_EVENT_t represent the signal objects.
 119:.\source\rte/sc_event.h ****  * A signal object contains the current application value 'value' as well as relevant meta data.
 120:.\source\rte/sc_event.h ****  */
 121:.\source\rte/sc_event.h **** struct SC_EVENT_s
 122:.\source\rte/sc_event.h **** {                                                                                                  
 123:.\source\rte/sc_event.h **** 
 124:.\source\rte/sc_event.h **** 	/**
 125:.\source\rte/sc_event.h **** 	 * Data buffer for the application value
 126:.\source\rte/sc_event.h **** 	 */
 127:.\source\rte/sc_event.h ****     SC_EVENT_data_t value;
 128:.\source\rte/sc_event.h **** 
 129:.\source\rte/sc_event.h ****     /**
 130:.\source\rte/sc_event.h ****      * Current signal status
 131:.\source\rte/sc_event.h ****      */
 132:.\source\rte/sc_event.h ****     RTE_signalStatus_t status;
 133:.\source\rte/sc_event.h **** 
 134:.\source\rte/sc_event.h ****     /**
 135:.\source\rte/sc_event.h ****      * Current age of the signal (in calling cycles)
 136:.\source\rte/sc_event.h ****      */
 137:.\source\rte/sc_event.h ****     uint32_t age;
 138:.\source\rte/sc_event.h **** 
 139:.\source\rte/sc_event.h ****     /**
 140:.\source\rte/sc_event.h ****      * Pointer to the signal configuration
 141:.\source\rte/sc_event.h ****      */
 142:.\source\rte/sc_event.h **** 	const SC_EVENT_cfg_t * const    pSigCfg;
 143:.\source\rte/sc_event.h **** 
 144:.\source\rte/sc_event.h **** };                                                                                                 
 145:.\source\rte/sc_event.h **** typedef struct SC_EVENT_s SC_EVENT_t;
 146:.\source\rte/sc_event.h **** 
ARM GAS  C:\Users\bolob\AppData\Local\Temp\cchrnVjX.s 			page 5


 147:.\source\rte/sc_event.h **** /**************************************************************************************************
 148:.\source\rte/sc_event.h **** /* Signal initialisation   																							*/
 149:.\source\rte/sc_event.h **** /**************************************************************************************************
 150:.\source\rte/sc_event.h **** 
 151:.\source\rte/sc_event.h **** /**
 152:.\source\rte/sc_event.h ****  * Initializes a signal instance with a passed init value.
 153:.\source\rte/sc_event.h ****  * Depending on the configured conversion or scaling function the raw_value will be calculated.
 154:.\source\rte/sc_event.h ****  * Signal status will change from RTE_SIGNALSTATUS_STARTUP to RTE_SIGNALSTATUS_INITIALIZED.
 155:.\source\rte/sc_event.h ****  *
 156:.\source\rte/sc_event.h ****  * @param  SC_EVENT_t * const signal: Pointer to the signal object which will be initialised
 157:.\source\rte/sc_event.h ****  * @return RC_t: standard return code, currently only RC_SUCCESS
 158:.\source\rte/sc_event.h ****  *
 159:.\source\rte/sc_event.h ****  **/
 160:.\source\rte/sc_event.h **** inline RC_t RTE_SC_EVENT_init( SC_EVENT_t * const signal )
 161:.\source\rte/sc_event.h **** {                                                                                                  
 162:.\source\rte/sc_event.h **** 
 163:.\source\rte/sc_event.h ****    RC_t ret = RC_SUCCESS;
 164:.\source\rte/sc_event.h **** 
 165:.\source\rte/sc_event.h ****    //Set value and raw value
 166:.\source\rte/sc_event.h ****    signal->value  = SC_EVENT_INIT_DATA;
 167:.\source\rte/sc_event.h ****    signal->age    = 0;
 168:.\source\rte/sc_event.h ****    signal->status = RTE_SIGNALSTATUS_INITIALIZED;
 169:.\source\rte/sc_event.h **** 
 170:.\source\rte/sc_event.h ****    return ret;
 171:.\source\rte/sc_event.h **** }
 172:.\source\rte/sc_event.h **** 
 173:.\source\rte/sc_event.h **** /**************************************************************************************************
 174:.\source\rte/sc_event.h **** /* Status and timeout control																						*/
 175:.\source\rte/sc_event.h **** /**************************************************************************************************
 176:.\source\rte/sc_event.h **** 
 177:.\source\rte/sc_event.h **** /**
 178:.\source\rte/sc_event.h ****  *  Returns the current signal status of the passed signal instance.
 179:.\source\rte/sc_event.h ****  *
 180:.\source\rte/sc_event.h ****  * @param  SC_EVENT_t * const signal: Pointer to the signal object
 181:.\source\rte/sc_event.h ****  * @return  sig_status_t: The current signal status
 182:.\source\rte/sc_event.h ****  *
 183:.\source\rte/sc_event.h ****  **/
 184:.\source\rte/sc_event.h **** inline RTE_signalStatus_t RTE_SC_EVENT_getStatus( const SC_EVENT_t * const signal )
 185:.\source\rte/sc_event.h **** {
 186:.\source\rte/sc_event.h ****    return signal->status;
 187:.\source\rte/sc_event.h **** }
 188:.\source\rte/sc_event.h **** 
 189:.\source\rte/sc_event.h **** 
 190:.\source\rte/sc_event.h **** /**
 191:.\source\rte/sc_event.h ****  *  Sets a new signal status of the passed signal instance by passing the new status.
 192:.\source\rte/sc_event.h ****  *
 193:.\source\rte/sc_event.h ****  * @param  SC_EVENT_t * const signal: Pointer to the signal object
 194:.\source\rte/sc_event.h ****  * @param  const sig_status_t status: New signal status
 195:.\source\rte/sc_event.h ****  * @return RC_t: standard return code, currently only RC_SUCCESS
 196:.\source\rte/sc_event.h ****  *
 197:.\source\rte/sc_event.h ****  */
 198:.\source\rte/sc_event.h **** inline RC_t RTE_SC_EVENT_setStatus( SC_EVENT_t * const signal, const RTE_signalStatus_t status )
 199:.\source\rte/sc_event.h **** {
 200:.\source\rte/sc_event.h ****    signal->status = status;
 201:.\source\rte/sc_event.h ****    size_t taskNum=0;
 202:.\source\rte/sc_event.h ****    
 203:.\source\rte/sc_event.h ****    //Fire error events in case of invalid state
ARM GAS  C:\Users\bolob\AppData\Local\Temp\cchrnVjX.s 			page 6


 204:.\source\rte/sc_event.h ****    if (signal->status == RTE_SIGNALSTATUS_INVALID)
 205:.\source\rte/sc_event.h ****    {
 206:.\source\rte/sc_event.h **** 	    //Pointer to the Taskarray, containing the tasks receiving the onUpdate events
 207:.\source\rte/sc_event.h **** 		TaskTypeArray* pTaskArray = signal->pSigCfg->onErrorTasks;
 208:.\source\rte/sc_event.h **** 
 209:.\source\rte/sc_event.h **** 		if (0 != signal->pSigCfg->evOnError && NULL != pTaskArray){
 210:.\source\rte/sc_event.h **** 			for( taskNum=0 ; taskNum < signal->pSigCfg->onErrorTaskCount ;taskNum++){
 211:.\source\rte/sc_event.h **** 				TaskType task = (*pTaskArray)[taskNum];
 212:.\source\rte/sc_event.h **** 				SetEvent( task, signal->pSigCfg->evOnError);
 213:.\source\rte/sc_event.h **** 			}
 214:.\source\rte/sc_event.h **** 		}
 215:.\source\rte/sc_event.h ****    }
 216:.\source\rte/sc_event.h ****    
 217:.\source\rte/sc_event.h ****    return RC_SUCCESS;
 218:.\source\rte/sc_event.h **** }
 219:.\source\rte/sc_event.h **** 
 220:.\source\rte/sc_event.h **** 
 221:.\source\rte/sc_event.h **** /**
 222:.\source\rte/sc_event.h ****  * Returns the count of refreshing trials (refresh, set or set_raw) that failed.
 223:.\source\rte/sc_event.h ****  * Prerquisite: The signal is refreshed cyclically
 224:.\source\rte/sc_event.h ****  *
 225:.\source\rte/sc_event.h ****  * @param  SC_EVENT_t * const signal: Pointer to the signal object
 226:.\source\rte/sc_event.h ****  * @return uint32_t: Number of cycles since the signal has been updated for the last time
 227:.\source\rte/sc_event.h ****  */
 228:.\source\rte/sc_event.h **** inline uint32_t RTE_SC_EVENT_getAge( const SC_EVENT_t * const signal )
 229:.\source\rte/sc_event.h **** {
 230:.\source\rte/sc_event.h ****    return signal->age;
 231:.\source\rte/sc_event.h **** }
 232:.\source\rte/sc_event.h **** 
 233:.\source\rte/sc_event.h **** /**
 234:.\source\rte/sc_event.h ****  * Should be called by application or driver if no new value can be provided.
 235:.\source\rte/sc_event.h ****  * @param  SC_EVENT_t * const signal: Pointer to the signal object
 236:.\source\rte/sc_event.h ****  * @param uint32_t increment: incrementvalue, typically in [ms]
 237:.\source\rte/sc_event.h ****  * @return void
 238:.\source\rte/sc_event.h ****  */
 239:.\source\rte/sc_event.h **** inline void RTE_SC_EVENT_incAge(  SC_EVENT_t * const signal , uint32_t increment)
 240:.\source\rte/sc_event.h **** {
 241:.\source\rte/sc_event.h **** 	   //Hack....
 242:.\source\rte/sc_event.h **** 	   if ( 0xFFFF0000 > (signal->age + increment) )
 243:.\source\rte/sc_event.h **** 	   {
 244:.\source\rte/sc_event.h **** 	      signal->age += increment;
 245:.\source\rte/sc_event.h **** 	   }
 246:.\source\rte/sc_event.h **** }
 247:.\source\rte/sc_event.h **** 
 248:.\source\rte/sc_event.h **** 
 249:.\source\rte/sc_event.h **** /**************************************************************************************************
 250:.\source\rte/sc_event.h **** /* Application Data read/write Interface																			*/
 251:.\source\rte/sc_event.h **** /**************************************************************************************************
 252:.\source\rte/sc_event.h **** 
 253:.\source\rte/sc_event.h **** /**
 254:.\source\rte/sc_event.h ****  * Returns the current application value as pointer to the signal payload.
 255:.\source\rte/sc_event.h ****  * Careful: This is not threadsafe!!!
 256:.\source\rte/sc_event.h ****  *
 257:.\source\rte/sc_event.h ****  * @param  SC_EVENT_t * const signal: Pointer to the signal object
 258:.\source\rte/sc_event.h ****  * @return sc_event_data_t*: pointer to the current value of the application data buffer
 259:.\source\rte/sc_event.h ****  *
 260:.\source\rte/sc_event.h ****  **/
ARM GAS  C:\Users\bolob\AppData\Local\Temp\cchrnVjX.s 			page 7


 261:.\source\rte/sc_event.h **** inline SC_EVENT_data_t* RTE_SC_EVENT_getPtr( SC_EVENT_t * const signal )
 262:.\source\rte/sc_event.h **** {               
 263:.\source\rte/sc_event.h ****    //Todo: Critical region cannot be protected using return values																						
 264:.\source\rte/sc_event.h ****    return &(signal->value);                                                                        
 265:.\source\rte/sc_event.h **** }
 266:.\source\rte/sc_event.h **** 
 267:.\source\rte/sc_event.h **** /**
 268:.\source\rte/sc_event.h ****  * Returns the current application value of the passed signal instance.
 269:.\source\rte/sc_event.h ****  *
 270:.\source\rte/sc_event.h ****  * @param  SC_EVENT_t * const signal: Pointer to the signal object
 271:.\source\rte/sc_event.h ****  * @return sc_event_data_t: current value of the application data buffer
 272:.\source\rte/sc_event.h ****  *
 273:.\source\rte/sc_event.h ****  **/
 274:.\source\rte/sc_event.h **** inline SC_EVENT_data_t RTE_SC_EVENT_get( const SC_EVENT_t * const signal )
 275:.\source\rte/sc_event.h **** {               
 276:.\source\rte/sc_event.h ****    //Todo: Critical region cannot be protected using return values																						
 277:.\source\rte/sc_event.h ****    return signal->value;                                                                           
 278:.\source\rte/sc_event.h **** }                                                                                                  
 279:.\source\rte/sc_event.h ****                                                                                                    
 280:.\source\rte/sc_event.h **** /**
 281:.\source\rte/sc_event.h ****  * Returns the current application value of the passed signal instance threadsafe.
 282:.\source\rte/sc_event.h ****  *
 283:.\source\rte/sc_event.h ****  * @param  SC_EVENT_t * const signal: Pointer to the signal object
 284:.\source\rte/sc_event.h ****  * @param  SC_EVENT_data_t* data: Pointer to the return data Pointer to the signal object
 285:.\source\rte/sc_event.h ****  * @return RC_SUCCESS
 286:.\source\rte/sc_event.h ****  *
 287:.\source\rte/sc_event.h ****  **/
 288:.\source\rte/sc_event.h **** inline RC_t RTE_SC_EVENT_getThreadSafe( const SC_EVENT_t * const signal, SC_EVENT_data_t * const da
 289:.\source\rte/sc_event.h **** {    
 290:.\source\rte/sc_event.h ****    if (TRUE == signal->pSigCfg->resourceActive) GetResource(signal->pSigCfg->resource);
 291:.\source\rte/sc_event.h ****    *data = signal->value;
 292:.\source\rte/sc_event.h ****    if (TRUE == signal->pSigCfg->resourceActive) ReleaseResource(signal->pSigCfg->resource);        
 293:.\source\rte/sc_event.h **** 
 294:.\source\rte/sc_event.h ****    return RC_SUCCESS;                                                                   
 295:.\source\rte/sc_event.h ****    
 296:.\source\rte/sc_event.h **** }                                                                                                  
 297:.\source\rte/sc_event.h ****                                                                                                    
 298:.\source\rte/sc_event.h **** /**
 299:.\source\rte/sc_event.h ****  * Sets a new application value to the passed signal instance by passing the new value.
 300:.\source\rte/sc_event.h ****  * The corresponding driver raw value will be calculated immediately by using the default conversio
 301:.\source\rte/sc_event.h ****  * signal specific scaling function.
 302:.\source\rte/sc_event.h ****  * The signal age will be set to 0 and the new status will be 'RTE_SIGNALSTATUS_VALID'.
 303:.\source\rte/sc_event.h ****  *
 304:.\source\rte/sc_event.h ****  * @param  SC_EVENT_t * const signal: Pointer to the signal object
 305:.\source\rte/sc_event.h ****  * @param  sc_event_data_t const value: value for the application data buffer
 306:.\source\rte/sc_event.h ****  * @return RC_t: standard return code, currently only RC_SUCCESS
 307:.\source\rte/sc_event.h ****  *
 308:.\source\rte/sc_event.h ****  **/
 309:.\source\rte/sc_event.h **** inline RC_t RTE_SC_EVENT_set(SC_EVENT_t * const signal, const SC_EVENT_data_t value  )
 310:.\source\rte/sc_event.h **** {
 311:.\source\rte/sc_event.h **** 
 312:.\source\rte/sc_event.h ****    RC_t ret = RC_SUCCESS;
 313:.\source\rte/sc_event.h ****    size_t taskNum=0;
 314:.\source\rte/sc_event.h **** 
 315:.\source\rte/sc_event.h **** 
 316:.\source\rte/sc_event.h ****    if (TRUE == signal->pSigCfg->resourceActive) GetResource(signal->pSigCfg->resource);
 317:.\source\rte/sc_event.h ****    signal->value  = value;
ARM GAS  C:\Users\bolob\AppData\Local\Temp\cchrnVjX.s 			page 8


 318:.\source\rte/sc_event.h ****    signal->age    = 0;
 319:.\source\rte/sc_event.h ****    signal->status = RTE_SIGNALSTATUS_VALID;
 320:.\source\rte/sc_event.h ****    if (TRUE == signal->pSigCfg->resourceActive) ReleaseResource(signal->pSigCfg->resource);
 321:.\source\rte/sc_event.h **** 
 322:.\source\rte/sc_event.h ****    //Pointer to the Taskarray, containing the tasks receiving the onUpdate events
 323:.\source\rte/sc_event.h ****    TaskTypeArray* pTaskArray = signal->pSigCfg->onUpdateTasks;
 324:.\source\rte/sc_event.h **** 
 325:.\source\rte/sc_event.h ****    if (0 != signal->pSigCfg->evOnUpdate && NULL != pTaskArray){
 326:.\source\rte/sc_event.h ****       for( taskNum=0 ; taskNum < signal->pSigCfg->onUpdateTaskCount ;taskNum++){
 327:.\source\rte/sc_event.h **** 		  
 328:.\source\rte/sc_event.h ****           TaskType task = (*pTaskArray)[taskNum];
 329:.\source\rte/sc_event.h **** 	      SetEvent( task, signal->pSigCfg->evOnUpdate);
 330:.\source\rte/sc_event.h ****       }
 331:.\source\rte/sc_event.h ****    }
 332:.\source\rte/sc_event.h **** 
 333:.\source\rte/sc_event.h ****    return ret;
 334:.\source\rte/sc_event.h **** }                                                                                                  
 335:.\source\rte/sc_event.h ****                                                                                                    
 336:.\source\rte/sc_event.h ****                                                                                                    
 337:.\source\rte/sc_event.h **** /**************************************************************************************************
 338:.\source\rte/sc_event.h **** /* Call functions to the connected drivers																			*/
 339:.\source\rte/sc_event.h **** /**************************************************************************************************
 340:.\source\rte/sc_event.h **** 
 341:.\source\rte/sc_event.h ****                                                                                                    
 342:.\source\rte/sc_event.h **** /**
 343:.\source\rte/sc_event.h ****  *  Calls the connected driver interface to get a new value.
 344:.\source\rte/sc_event.h ****  *
 345:.\source\rte/sc_event.h ****  * @param SC_EVENT_t * const signal: Pointer to the signal object
 346:.\source\rte/sc_event.h ****  * @return  RC_t: Return value of the driver call
 347:.\source\rte/sc_event.h ****  *
 348:.\source\rte/sc_event.h ****  */
 349:.\source\rte/sc_event.h **** inline RC_t RTE_SC_EVENT_pullPort( SC_EVENT_t * const signal )
 350:.\source\rte/sc_event.h **** {                                                                                                  
 351:.\source\rte/sc_event.h ****    RC_t ret = RC_SUCCESS;
 352:.\source\rte/sc_event.h **** 
 353:.\source\rte/sc_event.h ****                                                                                                    
 354:.\source\rte/sc_event.h ****    if ( NULL != signal->pSigCfg->inDriver )
  36              		.loc 2 354 0
  37 0000 214B     		ldr	r3, .L13
  38 0002 9B68     		ldr	r3, [r3, #8]
  39 0004 1A68     		ldr	r2, [r3]
  40 0006 002A     		cmp	r2, #0
  41 0008 3DD0     		beq	.L12
  42              	.LBE28:
  43              	.LBE27:
  44              		.loc 1 47 0
  45 000a 30B5     		push	{r4, r5, lr}
  46              		.cfi_def_cfa_offset 12
  47              		.cfi_offset 4, -12
  48              		.cfi_offset 5, -8
  49              		.cfi_offset 14, -4
  50 000c 83B0     		sub	sp, sp, #12
  51              		.cfi_def_cfa_offset 24
  52              	.LBB38:
  53              	.LBB37:
  54              	.LBB29:
 355:.\source\rte/sc_event.h ****    {
ARM GAS  C:\Users\bolob\AppData\Local\Temp\cchrnVjX.s 			page 9


 356:.\source\rte/sc_event.h **** 	  SC_EVENT_data_t value = signal->value;
  55              		.loc 2 356 0
  56 000e 1E4A     		ldr	r2, .L13
  57 0010 1278     		ldrb	r2, [r2]	@ zero_extendqisi2
  58 0012 02A8     		add	r0, sp, #8
  59              	.LVL1:
  60 0014 00F8042D 		strb	r2, [r0, #-4]!
 357:.\source\rte/sc_event.h ****       ret = signal->pSigCfg->inDriver(&value);
  61              		.loc 2 357 0
  62 0018 1B68     		ldr	r3, [r3]
  63 001a 9847     		blx	r3
  64              	.LVL2:
 358:.\source\rte/sc_event.h ****                                                                                                    
 359:.\source\rte/sc_event.h ****       if ( ret == RC_SUCCESS )                                                                     
  65              		.loc 2 359 0
  66 001c D8B9     		cbnz	r0, .L3
  67              	.LVL3:
  68 001e 9DF80410 		ldrb	r1, [sp, #4]	@ zero_extendqisi2
  69              	.LVL4:
  70              	.LBB30:
  71              	.LBB31:
 316:.\source\rte/sc_event.h ****    signal->value  = value;
  72              		.loc 2 316 0
  73 0022 194B     		ldr	r3, .L13
  74 0024 9A68     		ldr	r2, [r3, #8]
 317:.\source\rte/sc_event.h ****    signal->age    = 0;
  75              		.loc 2 317 0
  76 0026 1970     		strb	r1, [r3]
 318:.\source\rte/sc_event.h ****    signal->status = RTE_SIGNALSTATUS_VALID;
  77              		.loc 2 318 0
  78 0028 0021     		movs	r1, #0
  79 002a 5960     		str	r1, [r3, #4]
 319:.\source\rte/sc_event.h ****    if (TRUE == signal->pSigCfg->resourceActive) ReleaseResource(signal->pSigCfg->resource);
  80              		.loc 2 319 0
  81 002c 0221     		movs	r1, #2
  82 002e 5970     		strb	r1, [r3, #1]
 323:.\source\rte/sc_event.h **** 
  83              		.loc 2 323 0
  84 0030 5569     		ldr	r5, [r2, #20]
  85              	.LVL5:
 325:.\source\rte/sc_event.h ****       for( taskNum=0 ; taskNum < signal->pSigCfg->onUpdateTaskCount ;taskNum++){
  86              		.loc 2 325 0
  87 0032 9368     		ldr	r3, [r2, #8]
  88 0034 2BB3     		cbz	r3, .L1
  89 0036 3DB9     		cbnz	r5, .L9
  90 0038 23E0     		b	.L1
  91              	.LVL6:
  92              	.L6:
  93              	.LBB32:
 329:.\source\rte/sc_event.h ****       }
  94              		.loc 2 329 0
  95 003a 9968     		ldr	r1, [r3, #8]
  96 003c 55F82400 		ldr	r0, [r5, r4, lsl #2]
  97 0040 FFF7FEFF 		bl	EE_oo_SetEvent
  98              	.LVL7:
  99              	.LBE32:
 326:.\source\rte/sc_event.h **** 		  
ARM GAS  C:\Users\bolob\AppData\Local\Temp\cchrnVjX.s 			page 10


 100              		.loc 2 326 0
 101 0044 0134     		adds	r4, r4, #1
 102              	.LVL8:
 103 0046 00E0     		b	.L5
 104              	.LVL9:
 105              	.L9:
 325:.\source\rte/sc_event.h ****       for( taskNum=0 ; taskNum < signal->pSigCfg->onUpdateTaskCount ;taskNum++){
 106              		.loc 2 325 0
 107 0048 0024     		movs	r4, #0
 108              	.LVL10:
 109              	.L5:
 326:.\source\rte/sc_event.h **** 		  
 110              		.loc 2 326 0
 111 004a 0F4B     		ldr	r3, .L13
 112 004c 9B68     		ldr	r3, [r3, #8]
 113 004e 1A69     		ldr	r2, [r3, #16]
 114 0050 9442     		cmp	r4, r2
 115 0052 F2D3     		bcc	.L6
 116 0054 15E0     		b	.L1
 117              	.LVL11:
 118              	.L3:
 119              	.LBE31:
 120              	.LBE30:
 121              	.LBB33:
 122              	.LBB34:
 200:.\source\rte/sc_event.h ****    size_t taskNum=0;
 123              		.loc 2 200 0
 124 0056 0C4B     		ldr	r3, .L13
 125 0058 0322     		movs	r2, #3
 126 005a 5A70     		strb	r2, [r3, #1]
 127              	.LVL12:
 128              	.LBB35:
 207:.\source\rte/sc_event.h **** 
 129              		.loc 2 207 0
 130 005c 9B68     		ldr	r3, [r3, #8]
 131 005e DD69     		ldr	r5, [r3, #28]
 132              	.LVL13:
 209:.\source\rte/sc_event.h **** 			for( taskNum=0 ; taskNum < signal->pSigCfg->onErrorTaskCount ;taskNum++){
 133              		.loc 2 209 0
 134 0060 DB68     		ldr	r3, [r3, #12]
 135 0062 73B1     		cbz	r3, .L1
 136 0064 3DB9     		cbnz	r5, .L10
 137 0066 0CE0     		b	.L1
 138              	.LVL14:
 139              	.L8:
 140              	.LBB36:
 212:.\source\rte/sc_event.h **** 			}
 141              		.loc 2 212 0
 142 0068 D968     		ldr	r1, [r3, #12]
 143 006a 55F82400 		ldr	r0, [r5, r4, lsl #2]
 144 006e FFF7FEFF 		bl	EE_oo_SetEvent
 145              	.LVL15:
 146              	.LBE36:
 210:.\source\rte/sc_event.h **** 				TaskType task = (*pTaskArray)[taskNum];
 147              		.loc 2 210 0
 148 0072 0134     		adds	r4, r4, #1
 149              	.LVL16:
ARM GAS  C:\Users\bolob\AppData\Local\Temp\cchrnVjX.s 			page 11


 150 0074 00E0     		b	.L7
 151              	.LVL17:
 152              	.L10:
 209:.\source\rte/sc_event.h **** 			for( taskNum=0 ; taskNum < signal->pSigCfg->onErrorTaskCount ;taskNum++){
 153              		.loc 2 209 0
 154 0076 0024     		movs	r4, #0
 155              	.LVL18:
 156              	.L7:
 210:.\source\rte/sc_event.h **** 				TaskType task = (*pTaskArray)[taskNum];
 157              		.loc 2 210 0
 158 0078 034B     		ldr	r3, .L13
 159 007a 9B68     		ldr	r3, [r3, #8]
 160 007c 9A69     		ldr	r2, [r3, #24]
 161 007e 9442     		cmp	r4, r2
 162 0080 F2D3     		bcc	.L8
 163              	.LVL19:
 164              	.L1:
 165              	.LBE35:
 166              	.LBE34:
 167              	.LBE33:
 168              	.LBE29:
 169              	.LBE37:
 170              	.LBE38:
  48:source\asw/swc_clock.c **** 	
  49:source\asw/swc_clock.c **** 	/* USER CODE START CLOCK_input_run */
  50:source\asw/swc_clock.c ****     RTE_SC_EVENT_pullPort(&SO_EVENT_signal);
  51:source\asw/swc_clock.c ****     /* USER CODE END CLOCK_input_run */
  52:source\asw/swc_clock.c **** }
 171              		.loc 1 52 0
 172 0082 03B0     		add	sp, sp, #12
 173              		.cfi_def_cfa_offset 12
 174              		@ sp needed
 175 0084 30BD     		pop	{r4, r5, pc}
 176              	.LVL20:
 177              	.L12:
 178              		.cfi_def_cfa_offset 0
 179              		.cfi_restore 4
 180              		.cfi_restore 5
 181              		.cfi_restore 14
 182 0086 7047     		bx	lr
 183              	.L14:
 184              		.align	2
 185              	.L13:
 186 0088 00000000 		.word	SO_EVENT_signal
 187              		.cfi_endproc
 188              	.LFE133:
 189              		.size	CLOCK_input_run, .-CLOCK_input_run
 190              		.section	.text.CLOCK_contol_run,"ax",%progbits
 191              		.align	2
 192              		.global	CLOCK_contol_run
 193              		.thumb
 194              		.thumb_func
 195              		.type	CLOCK_contol_run, %function
 196              	CLOCK_contol_run:
 197              	.LFB134:
  53:source\asw/swc_clock.c **** 
  54:source\asw/swc_clock.c **** /*
ARM GAS  C:\Users\bolob\AppData\Local\Temp\cchrnVjX.s 			page 12


  55:source\asw/swc_clock.c ****  * component: swc_Clock
  56:source\asw/swc_clock.c ****  * cycletime: 0
  57:source\asw/swc_clock.c ****  * description: Statemachine runnable
  58:source\asw/swc_clock.c ****  * events: ev_event_onData
  59:source\asw/swc_clock.c ****  * name: CLOCK_contol_run
  60:source\asw/swc_clock.c ****  * shortname: contol
  61:source\asw/swc_clock.c ****  * signalIN: so_event
  62:source\asw/swc_clock.c ****  * signalOUT: so_displayData
  63:source\asw/swc_clock.c ****  * task: tsk_control
  64:source\asw/swc_clock.c ****  */
  65:source\asw/swc_clock.c **** void CLOCK_contol_run(RTE_event ev){
 198              		.loc 1 65 0
 199              		.cfi_startproc
 200              		@ args = 0, pretend = 0, frame = 0
 201              		@ frame_needed = 0, uses_anonymous_args = 0
 202              	.LVL21:
 203 0000 08B5     		push	{r3, lr}
 204              		.cfi_def_cfa_offset 8
 205              		.cfi_offset 3, -8
 206              		.cfi_offset 14, -4
 207              	.LVL22:
  66:source\asw/swc_clock.c **** 	
  67:source\asw/swc_clock.c **** 	/* USER CODE START CLOCK_contol_run */
  68:source\asw/swc_clock.c ****     SC_EVENT_data_t data = RTE_SC_EVENT_get(&SO_EVENT_signal);
  69:source\asw/swc_clock.c ****     static ClockContainerState containerState = CLOCK_C_ISDISPLAYING;
  70:source\asw/swc_clock.c ****     
  71:source\asw/swc_clock.c ****     CONTAINER_processEvent(&containerState, data.m_ev);       
 208              		.loc 1 71 0
 209 0002 034B     		ldr	r3, .L17
 210 0004 1978     		ldrb	r1, [r3]	@ zero_extendqisi2
 211 0006 0348     		ldr	r0, .L17+4
 212              	.LVL23:
 213 0008 FFF7FEFF 		bl	CONTAINER_processEvent
 214              	.LVL24:
 215 000c 08BD     		pop	{r3, pc}
 216              	.L18:
 217 000e 00BF     		.align	2
 218              	.L17:
 219 0010 00000000 		.word	SO_EVENT_signal
 220 0014 00000000 		.word	.LANCHOR0
 221              		.cfi_endproc
 222              	.LFE134:
 223              		.size	CLOCK_contol_run, .-CLOCK_contol_run
 224              		.section	.text.CLOCK_display_run,"ax",%progbits
 225              		.align	2
 226              		.global	CLOCK_display_run
 227              		.thumb
 228              		.thumb_func
 229              		.type	CLOCK_display_run, %function
 230              	CLOCK_display_run:
 231              	.LFB135:
  72:source\asw/swc_clock.c ****     /* USER CODE END CLOCK_contol_run */
  73:source\asw/swc_clock.c **** }
  74:source\asw/swc_clock.c **** 
  75:source\asw/swc_clock.c **** /*
  76:source\asw/swc_clock.c ****  * component: swc_Clock
  77:source\asw/swc_clock.c ****  * cycletime: 250
ARM GAS  C:\Users\bolob\AppData\Local\Temp\cchrnVjX.s 			page 13


  78:source\asw/swc_clock.c ****  * description: TFT display runnable
  79:source\asw/swc_clock.c ****  * events: 
  80:source\asw/swc_clock.c ****  * name: CLOCK_display_run
  81:source\asw/swc_clock.c ****  * shortname: display
  82:source\asw/swc_clock.c ****  * signalIN: so_displayData
  83:source\asw/swc_clock.c ****  * signalOUT: 
  84:source\asw/swc_clock.c ****  * task: tsk_io
  85:source\asw/swc_clock.c ****  */
  86:source\asw/swc_clock.c **** void CLOCK_display_run(RTE_event ev) {
 232              		.loc 1 86 0
 233              		.cfi_startproc
 234              		@ args = 0, pretend = 0, frame = 40
 235              		@ frame_needed = 0, uses_anonymous_args = 0
 236              	.LVL25:
 237 0000 F0B5     		push	{r4, r5, r6, r7, lr}
 238              		.cfi_def_cfa_offset 20
 239              		.cfi_offset 4, -20
 240              		.cfi_offset 5, -16
 241              		.cfi_offset 6, -12
 242              		.cfi_offset 7, -8
 243              		.cfi_offset 14, -4
 244 0002 8FB0     		sub	sp, sp, #60
 245              		.cfi_def_cfa_offset 80
  87:source\asw/swc_clock.c ****     /* USER CODE START CLOCK_display_run */
  88:source\asw/swc_clock.c ****     static uint8_t last_hour = 255;
  89:source\asw/swc_clock.c ****     static uint8_t last_minute = 255;
  90:source\asw/swc_clock.c ****     static boolean_t last_invHours = FALSE;
  91:source\asw/swc_clock.c ****     static boolean_t last_invMinutes = FALSE;
  92:source\asw/swc_clock.c ****     static boolean_t show_colon = TRUE;
  93:source\asw/swc_clock.c **** 
  94:source\asw/swc_clock.c ****     uint8_t hour = g_hours;
 246              		.loc 1 94 0
 247 0004 6D4E     		ldr	r6, .L32
 248 0006 7578     		ldrb	r5, [r6, #1]	@ zero_extendqisi2
 249              	.LVL26:
  95:source\asw/swc_clock.c ****     uint8_t minute = g_minutes;
 250              		.loc 1 95 0
 251 0008 B478     		ldrb	r4, [r6, #2]	@ zero_extendqisi2
 252              	.LVL27:
 253              	.LBB39:
 254              	.LBB40:
 255              		.file 3 ".\\source\\rte/sc_displaydata.h"
   1:.\source\rte/sc_displaydata.h **** 
   2:.\source\rte/sc_displaydata.h **** 
   3:.\source\rte/sc_displaydata.h **** /**
   4:.\source\rte/sc_displaydata.h ****  *  file    SC_DISPLAYDATA_signal.h
   5:.\source\rte/sc_displaydata.h ****  *
   6:.\source\rte/sc_displaydata.h ****  *  brief   signal base class for signal sc_displaydata
   7:.\source\rte/sc_displaydata.h ****  *
   8:.\source\rte/sc_displaydata.h ****  *  author  Autogenerated, Peter Fromm       <peter.fromm@h-da.de>
   9:.\source\rte/sc_displaydata.h ****  *
  10:.\source\rte/sc_displaydata.h ****  * description: Signalclass
  11:.\source\rte/sc_displaydata.h ****  * name: sc_displayData
  12:.\source\rte/sc_displaydata.h ****  * shortname: displayData
  13:.\source\rte/sc_displaydata.h ****  *
  14:.\source\rte/sc_displaydata.h ****  */
  15:.\source\rte/sc_displaydata.h **** 
ARM GAS  C:\Users\bolob\AppData\Local\Temp\cchrnVjX.s 			page 14


  16:.\source\rte/sc_displaydata.h **** 
  17:.\source\rte/sc_displaydata.h **** 
  18:.\source\rte/sc_displaydata.h **** #ifndef SC_DISPLAYDATA_SIGNAL_H_INCLUDED
  19:.\source\rte/sc_displaydata.h **** #define SC_DISPLAYDATA_SIGNAL_H_INCLUDED
  20:.\source\rte/sc_displaydata.h **** 
  21:.\source\rte/sc_displaydata.h **** /*================================================[ public includes  ]=============================
  22:.\source\rte/sc_displaydata.h **** #include "global.h"
  23:.\source\rte/sc_displaydata.h **** #include "project.h"
  24:.\source\rte/sc_displaydata.h **** #include "rte.h"
  25:.\source\rte/sc_displaydata.h **** #include "rte_types.h"
  26:.\source\rte/sc_displaydata.h **** 
  27:.\source\rte/sc_displaydata.h **** #include "sc_displaydata_type.h"
  28:.\source\rte/sc_displaydata.h **** 
  29:.\source\rte/sc_displaydata.h **** 
  30:.\source\rte/sc_displaydata.h **** /**************************************************************************************************
  31:.\source\rte/sc_displaydata.h **** /* The driver API block																						*/
  32:.\source\rte/sc_displaydata.h **** /**************************************************************************************************
  33:.\source\rte/sc_displaydata.h ****                                                                                                    
  34:.\source\rte/sc_displaydata.h **** /**
  35:.\source\rte/sc_displaydata.h ****  *  Definition of function types for driver interfaces.
  36:.\source\rte/sc_displaydata.h ****  *  I-Port
  37:.\source\rte/sc_displaydata.h ****  */
  38:.\source\rte/sc_displaydata.h **** typedef RC_t (*SC_DISPLAYDATA_driverIn_t)(SC_DISPLAYDATA_data_t * const);
  39:.\source\rte/sc_displaydata.h **** 
  40:.\source\rte/sc_displaydata.h **** /**
  41:.\source\rte/sc_displaydata.h ****  *  Definition of function types for driver interfaces.
  42:.\source\rte/sc_displaydata.h ****  *  O-Port
  43:.\source\rte/sc_displaydata.h ****  */
  44:.\source\rte/sc_displaydata.h **** typedef RC_t (*SC_DISPLAYDATA_driverOut_t)( const SC_DISPLAYDATA_data_t * const);
  45:.\source\rte/sc_displaydata.h **** 
  46:.\source\rte/sc_displaydata.h **** 
  47:.\source\rte/sc_displaydata.h **** /**************************************************************************************************
  48:.\source\rte/sc_displaydata.h **** /* The signal configuration API block																				*/
  49:.\source\rte/sc_displaydata.h **** /**************************************************************************************************
  50:.\source\rte/sc_displaydata.h **** 
  51:.\source\rte/sc_displaydata.h **** /**
  52:.\source\rte/sc_displaydata.h ****  * Instances of the struct SC_DISPLAYDATA_cfg_t represent the signal object configuration.
  53:.\source\rte/sc_displaydata.h ****  */
  54:.\source\rte/sc_displaydata.h **** struct SC_DISPLAYDATA_cfg_s
  55:.\source\rte/sc_displaydata.h **** {
  56:.\source\rte/sc_displaydata.h ****     /**
  57:.\source\rte/sc_displaydata.h ****      * Function pointer to the input driver
  58:.\source\rte/sc_displaydata.h ****      */
  59:.\source\rte/sc_displaydata.h ****     SC_DISPLAYDATA_driverIn_t const inDriver;
  60:.\source\rte/sc_displaydata.h **** 
  61:.\source\rte/sc_displaydata.h ****     /**
  62:.\source\rte/sc_displaydata.h ****      * Function pointer to the output driver table
  63:.\source\rte/sc_displaydata.h ****      */
  64:.\source\rte/sc_displaydata.h ****    SC_DISPLAYDATA_driverOut_t const outDriver;
  65:.\source\rte/sc_displaydata.h ****    
  66:.\source\rte/sc_displaydata.h ****     /**
  67:.\source\rte/sc_displaydata.h ****      * Event onUpdate
  68:.\source\rte/sc_displaydata.h ****      */
  69:.\source\rte/sc_displaydata.h ****     EventMaskType const evOnUpdate;
  70:.\source\rte/sc_displaydata.h ****     
  71:.\source\rte/sc_displaydata.h ****     
  72:.\source\rte/sc_displaydata.h ****     /**
ARM GAS  C:\Users\bolob\AppData\Local\Temp\cchrnVjX.s 			page 15


  73:.\source\rte/sc_displaydata.h ****      * Event onError
  74:.\source\rte/sc_displaydata.h ****      */
  75:.\source\rte/sc_displaydata.h ****     EventMaskType const evOnError;
  76:.\source\rte/sc_displaydata.h ****     
  77:.\source\rte/sc_displaydata.h ****     /**
  78:.\source\rte/sc_displaydata.h ****      * Task Count onUpdate
  79:.\source\rte/sc_displaydata.h ****      */
  80:.\source\rte/sc_displaydata.h ****     size_t const onUpdateTaskCount;
  81:.\source\rte/sc_displaydata.h **** 
  82:.\source\rte/sc_displaydata.h ****     /**
  83:.\source\rte/sc_displaydata.h ****      * Task List onUpdate
  84:.\source\rte/sc_displaydata.h ****      */
  85:.\source\rte/sc_displaydata.h ****     TaskTypeArray* const onUpdateTasks;
  86:.\source\rte/sc_displaydata.h ****     
  87:.\source\rte/sc_displaydata.h ****     /**
  88:.\source\rte/sc_displaydata.h ****      * Task Count onError
  89:.\source\rte/sc_displaydata.h ****      */
  90:.\source\rte/sc_displaydata.h ****     size_t const onErrorTaskCount;
  91:.\source\rte/sc_displaydata.h **** 
  92:.\source\rte/sc_displaydata.h ****     /**
  93:.\source\rte/sc_displaydata.h ****      * Task List onError
  94:.\source\rte/sc_displaydata.h ****      */
  95:.\source\rte/sc_displaydata.h ****     TaskTypeArray* const onErrorTasks;
  96:.\source\rte/sc_displaydata.h **** 	
  97:.\source\rte/sc_displaydata.h **** 	
  98:.\source\rte/sc_displaydata.h **** 	/**
  99:.\source\rte/sc_displaydata.h **** 	 * Ressourse is active? We need an additional boolean as a ressource value 0 is valid.
 100:.\source\rte/sc_displaydata.h **** 	 */
 101:.\source\rte/sc_displaydata.h **** 	 boolean_t const resourceActive;
 102:.\source\rte/sc_displaydata.h **** 	 
 103:.\source\rte/sc_displaydata.h **** 	/**
 104:.\source\rte/sc_displaydata.h **** 	 * Ressourse 
 105:.\source\rte/sc_displaydata.h **** 	 */
 106:.\source\rte/sc_displaydata.h **** 	 ResourceType const resource;
 107:.\source\rte/sc_displaydata.h **** 
 108:.\source\rte/sc_displaydata.h **** };                                                                                                 
 109:.\source\rte/sc_displaydata.h **** typedef const struct SC_DISPLAYDATA_cfg_s SC_DISPLAYDATA_cfg_t;
 110:.\source\rte/sc_displaydata.h ****                               
 111:.\source\rte/sc_displaydata.h **** /**************************************************************************************************
 112:.\source\rte/sc_displaydata.h **** /* The data interface block																							*/
 113:.\source\rte/sc_displaydata.h **** /**************************************************************************************************
 114:.\source\rte/sc_displaydata.h **** 
 115:.\source\rte/sc_displaydata.h ****                                                                                                    
 116:.\source\rte/sc_displaydata.h **** 							  
 117:.\source\rte/sc_displaydata.h **** /**
 118:.\source\rte/sc_displaydata.h ****  * Instances of the struct SC_DISPLAYDATA_t represent the signal objects.
 119:.\source\rte/sc_displaydata.h ****  * A signal object contains the current application value 'value' as well as relevant meta data.
 120:.\source\rte/sc_displaydata.h ****  */
 121:.\source\rte/sc_displaydata.h **** struct SC_DISPLAYDATA_s
 122:.\source\rte/sc_displaydata.h **** {                                                                                                  
 123:.\source\rte/sc_displaydata.h **** 
 124:.\source\rte/sc_displaydata.h **** 	/**
 125:.\source\rte/sc_displaydata.h **** 	 * Data buffer for the application value
 126:.\source\rte/sc_displaydata.h **** 	 */
 127:.\source\rte/sc_displaydata.h ****     SC_DISPLAYDATA_data_t value;
 128:.\source\rte/sc_displaydata.h **** 
 129:.\source\rte/sc_displaydata.h ****     /**
ARM GAS  C:\Users\bolob\AppData\Local\Temp\cchrnVjX.s 			page 16


 130:.\source\rte/sc_displaydata.h ****      * Current signal status
 131:.\source\rte/sc_displaydata.h ****      */
 132:.\source\rte/sc_displaydata.h ****     RTE_signalStatus_t status;
 133:.\source\rte/sc_displaydata.h **** 
 134:.\source\rte/sc_displaydata.h ****     /**
 135:.\source\rte/sc_displaydata.h ****      * Current age of the signal (in calling cycles)
 136:.\source\rte/sc_displaydata.h ****      */
 137:.\source\rte/sc_displaydata.h ****     uint32_t age;
 138:.\source\rte/sc_displaydata.h **** 
 139:.\source\rte/sc_displaydata.h ****     /**
 140:.\source\rte/sc_displaydata.h ****      * Pointer to the signal configuration
 141:.\source\rte/sc_displaydata.h ****      */
 142:.\source\rte/sc_displaydata.h **** 	const SC_DISPLAYDATA_cfg_t * const    pSigCfg;
 143:.\source\rte/sc_displaydata.h **** 
 144:.\source\rte/sc_displaydata.h **** };                                                                                                 
 145:.\source\rte/sc_displaydata.h **** typedef struct SC_DISPLAYDATA_s SC_DISPLAYDATA_t;
 146:.\source\rte/sc_displaydata.h **** 
 147:.\source\rte/sc_displaydata.h **** /**************************************************************************************************
 148:.\source\rte/sc_displaydata.h **** /* Signal initialisation   																							*/
 149:.\source\rte/sc_displaydata.h **** /**************************************************************************************************
 150:.\source\rte/sc_displaydata.h **** 
 151:.\source\rte/sc_displaydata.h **** /**
 152:.\source\rte/sc_displaydata.h ****  * Initializes a signal instance with a passed init value.
 153:.\source\rte/sc_displaydata.h ****  * Depending on the configured conversion or scaling function the raw_value will be calculated.
 154:.\source\rte/sc_displaydata.h ****  * Signal status will change from RTE_SIGNALSTATUS_STARTUP to RTE_SIGNALSTATUS_INITIALIZED.
 155:.\source\rte/sc_displaydata.h ****  *
 156:.\source\rte/sc_displaydata.h ****  * @param  SC_DISPLAYDATA_t * const signal: Pointer to the signal object which will be initialised
 157:.\source\rte/sc_displaydata.h ****  * @return RC_t: standard return code, currently only RC_SUCCESS
 158:.\source\rte/sc_displaydata.h ****  *
 159:.\source\rte/sc_displaydata.h ****  **/
 160:.\source\rte/sc_displaydata.h **** inline RC_t RTE_SC_DISPLAYDATA_init( SC_DISPLAYDATA_t * const signal )
 161:.\source\rte/sc_displaydata.h **** {                                                                                                  
 162:.\source\rte/sc_displaydata.h **** 
 163:.\source\rte/sc_displaydata.h ****    RC_t ret = RC_SUCCESS;
 164:.\source\rte/sc_displaydata.h **** 
 165:.\source\rte/sc_displaydata.h ****    //Set value and raw value
 166:.\source\rte/sc_displaydata.h ****    signal->value  = SC_DISPLAYDATA_INIT_DATA;
 167:.\source\rte/sc_displaydata.h ****    signal->age    = 0;
 168:.\source\rte/sc_displaydata.h ****    signal->status = RTE_SIGNALSTATUS_INITIALIZED;
 169:.\source\rte/sc_displaydata.h **** 
 170:.\source\rte/sc_displaydata.h ****    return ret;
 171:.\source\rte/sc_displaydata.h **** }
 172:.\source\rte/sc_displaydata.h **** 
 173:.\source\rte/sc_displaydata.h **** /**************************************************************************************************
 174:.\source\rte/sc_displaydata.h **** /* Status and timeout control																						*/
 175:.\source\rte/sc_displaydata.h **** /**************************************************************************************************
 176:.\source\rte/sc_displaydata.h **** 
 177:.\source\rte/sc_displaydata.h **** /**
 178:.\source\rte/sc_displaydata.h ****  *  Returns the current signal status of the passed signal instance.
 179:.\source\rte/sc_displaydata.h ****  *
 180:.\source\rte/sc_displaydata.h ****  * @param  SC_DISPLAYDATA_t * const signal: Pointer to the signal object
 181:.\source\rte/sc_displaydata.h ****  * @return  sig_status_t: The current signal status
 182:.\source\rte/sc_displaydata.h ****  *
 183:.\source\rte/sc_displaydata.h ****  **/
 184:.\source\rte/sc_displaydata.h **** inline RTE_signalStatus_t RTE_SC_DISPLAYDATA_getStatus( const SC_DISPLAYDATA_t * const signal )
 185:.\source\rte/sc_displaydata.h **** {
 186:.\source\rte/sc_displaydata.h ****    return signal->status;
ARM GAS  C:\Users\bolob\AppData\Local\Temp\cchrnVjX.s 			page 17


 187:.\source\rte/sc_displaydata.h **** }
 188:.\source\rte/sc_displaydata.h **** 
 189:.\source\rte/sc_displaydata.h **** 
 190:.\source\rte/sc_displaydata.h **** /**
 191:.\source\rte/sc_displaydata.h ****  *  Sets a new signal status of the passed signal instance by passing the new status.
 192:.\source\rte/sc_displaydata.h ****  *
 193:.\source\rte/sc_displaydata.h ****  * @param  SC_DISPLAYDATA_t * const signal: Pointer to the signal object
 194:.\source\rte/sc_displaydata.h ****  * @param  const sig_status_t status: New signal status
 195:.\source\rte/sc_displaydata.h ****  * @return RC_t: standard return code, currently only RC_SUCCESS
 196:.\source\rte/sc_displaydata.h ****  *
 197:.\source\rte/sc_displaydata.h ****  */
 198:.\source\rte/sc_displaydata.h **** inline RC_t RTE_SC_DISPLAYDATA_setStatus( SC_DISPLAYDATA_t * const signal, const RTE_signalStatus_t
 199:.\source\rte/sc_displaydata.h **** {
 200:.\source\rte/sc_displaydata.h ****    signal->status = status;
 201:.\source\rte/sc_displaydata.h ****    size_t taskNum=0;
 202:.\source\rte/sc_displaydata.h ****    
 203:.\source\rte/sc_displaydata.h ****    //Fire error events in case of invalid state
 204:.\source\rte/sc_displaydata.h ****    if (signal->status == RTE_SIGNALSTATUS_INVALID)
 205:.\source\rte/sc_displaydata.h ****    {
 206:.\source\rte/sc_displaydata.h **** 	    //Pointer to the Taskarray, containing the tasks receiving the onUpdate events
 207:.\source\rte/sc_displaydata.h **** 		TaskTypeArray* pTaskArray = signal->pSigCfg->onErrorTasks;
 208:.\source\rte/sc_displaydata.h **** 
 209:.\source\rte/sc_displaydata.h **** 		if (0 != signal->pSigCfg->evOnError && NULL != pTaskArray){
 210:.\source\rte/sc_displaydata.h **** 			for( taskNum=0 ; taskNum < signal->pSigCfg->onErrorTaskCount ;taskNum++){
 211:.\source\rte/sc_displaydata.h **** 				TaskType task = (*pTaskArray)[taskNum];
 212:.\source\rte/sc_displaydata.h **** 				SetEvent( task, signal->pSigCfg->evOnError);
 213:.\source\rte/sc_displaydata.h **** 			}
 214:.\source\rte/sc_displaydata.h **** 		}
 215:.\source\rte/sc_displaydata.h ****    }
 216:.\source\rte/sc_displaydata.h ****    
 217:.\source\rte/sc_displaydata.h ****    return RC_SUCCESS;
 218:.\source\rte/sc_displaydata.h **** }
 219:.\source\rte/sc_displaydata.h **** 
 220:.\source\rte/sc_displaydata.h **** 
 221:.\source\rte/sc_displaydata.h **** /**
 222:.\source\rte/sc_displaydata.h ****  * Returns the count of refreshing trials (refresh, set or set_raw) that failed.
 223:.\source\rte/sc_displaydata.h ****  * Prerquisite: The signal is refreshed cyclically
 224:.\source\rte/sc_displaydata.h ****  *
 225:.\source\rte/sc_displaydata.h ****  * @param  SC_DISPLAYDATA_t * const signal: Pointer to the signal object
 226:.\source\rte/sc_displaydata.h ****  * @return uint32_t: Number of cycles since the signal has been updated for the last time
 227:.\source\rte/sc_displaydata.h ****  */
 228:.\source\rte/sc_displaydata.h **** inline uint32_t RTE_SC_DISPLAYDATA_getAge( const SC_DISPLAYDATA_t * const signal )
 229:.\source\rte/sc_displaydata.h **** {
 230:.\source\rte/sc_displaydata.h ****    return signal->age;
 231:.\source\rte/sc_displaydata.h **** }
 232:.\source\rte/sc_displaydata.h **** 
 233:.\source\rte/sc_displaydata.h **** /**
 234:.\source\rte/sc_displaydata.h ****  * Should be called by application or driver if no new value can be provided.
 235:.\source\rte/sc_displaydata.h ****  * @param  SC_DISPLAYDATA_t * const signal: Pointer to the signal object
 236:.\source\rte/sc_displaydata.h ****  * @param uint32_t increment: incrementvalue, typically in [ms]
 237:.\source\rte/sc_displaydata.h ****  * @return void
 238:.\source\rte/sc_displaydata.h ****  */
 239:.\source\rte/sc_displaydata.h **** inline void RTE_SC_DISPLAYDATA_incAge(  SC_DISPLAYDATA_t * const signal , uint32_t increment)
 240:.\source\rte/sc_displaydata.h **** {
 241:.\source\rte/sc_displaydata.h **** 	   //Hack....
 242:.\source\rte/sc_displaydata.h **** 	   if ( 0xFFFF0000 > (signal->age + increment) )
 243:.\source\rte/sc_displaydata.h **** 	   {
ARM GAS  C:\Users\bolob\AppData\Local\Temp\cchrnVjX.s 			page 18


 244:.\source\rte/sc_displaydata.h **** 	      signal->age += increment;
 245:.\source\rte/sc_displaydata.h **** 	   }
 246:.\source\rte/sc_displaydata.h **** }
 247:.\source\rte/sc_displaydata.h **** 
 248:.\source\rte/sc_displaydata.h **** 
 249:.\source\rte/sc_displaydata.h **** /**************************************************************************************************
 250:.\source\rte/sc_displaydata.h **** /* Application Data read/write Interface																			*/
 251:.\source\rte/sc_displaydata.h **** /**************************************************************************************************
 252:.\source\rte/sc_displaydata.h **** 
 253:.\source\rte/sc_displaydata.h **** /**
 254:.\source\rte/sc_displaydata.h ****  * Returns the current application value as pointer to the signal payload.
 255:.\source\rte/sc_displaydata.h ****  * Careful: This is not threadsafe!!!
 256:.\source\rte/sc_displaydata.h ****  *
 257:.\source\rte/sc_displaydata.h ****  * @param  SC_DISPLAYDATA_t * const signal: Pointer to the signal object
 258:.\source\rte/sc_displaydata.h ****  * @return sc_displaydata_data_t*: pointer to the current value of the application data buffer
 259:.\source\rte/sc_displaydata.h ****  *
 260:.\source\rte/sc_displaydata.h ****  **/
 261:.\source\rte/sc_displaydata.h **** inline SC_DISPLAYDATA_data_t* RTE_SC_DISPLAYDATA_getPtr( SC_DISPLAYDATA_t * const signal )
 262:.\source\rte/sc_displaydata.h **** {               
 263:.\source\rte/sc_displaydata.h ****    //Todo: Critical region cannot be protected using return values																						
 264:.\source\rte/sc_displaydata.h ****    return &(signal->value);                                                                        
 265:.\source\rte/sc_displaydata.h **** }
 266:.\source\rte/sc_displaydata.h **** 
 267:.\source\rte/sc_displaydata.h **** /**
 268:.\source\rte/sc_displaydata.h ****  * Returns the current application value of the passed signal instance.
 269:.\source\rte/sc_displaydata.h ****  *
 270:.\source\rte/sc_displaydata.h ****  * @param  SC_DISPLAYDATA_t * const signal: Pointer to the signal object
 271:.\source\rte/sc_displaydata.h ****  * @return sc_displaydata_data_t: current value of the application data buffer
 272:.\source\rte/sc_displaydata.h ****  *
 273:.\source\rte/sc_displaydata.h ****  **/
 274:.\source\rte/sc_displaydata.h **** inline SC_DISPLAYDATA_data_t RTE_SC_DISPLAYDATA_get( const SC_DISPLAYDATA_t * const signal )
 275:.\source\rte/sc_displaydata.h **** {               
 276:.\source\rte/sc_displaydata.h ****    //Todo: Critical region cannot be protected using return values																						
 277:.\source\rte/sc_displaydata.h ****    return signal->value;                                                                           
 256              		.loc 3 277 0
 257 000a 6D4B     		ldr	r3, .L32+4
 258 000c 1B88     		ldrh	r3, [r3]
 259 000e ADF83030 		strh	r3, [sp, #48]	@ movhi
 260              	.LVL28:
 261              	.LBE40:
 262              	.LBE39:
  96:source\asw/swc_clock.c **** 
  97:source\asw/swc_clock.c ****     SC_DISPLAYDATA_data_t data = RTE_SC_DISPLAYDATA_get(&SO_DISPLAYDATA_signal);
  98:source\asw/swc_clock.c **** 
  99:source\asw/swc_clock.c ****     // Configuration
 100:source\asw/swc_clock.c ****     TFT_setTextSize(4);
 263              		.loc 1 100 0
 264 0012 0420     		movs	r0, #4
 265              	.LVL29:
 266 0014 FFF7FEFF 		bl	TFT_setTextSize
 267              	.LVL30:
 101:source\asw/swc_clock.c ****     TFT_setFont(NULL);
 268              		.loc 1 101 0
 269 0018 0020     		movs	r0, #0
 270 001a FFF7FEFF 		bl	TFT_setFont
 271              	.LVL31:
 102:source\asw/swc_clock.c ****     TFT_setTextWrap(0);
ARM GAS  C:\Users\bolob\AppData\Local\Temp\cchrnVjX.s 			page 19


 272              		.loc 1 102 0
 273 001e 0020     		movs	r0, #0
 274 0020 FFF7FEFF 		bl	TFT_setTextWrap
 275              	.LVL32:
 103:source\asw/swc_clock.c **** 
 104:source\asw/swc_clock.c ****     // Coordinate calculation only once
 105:source\asw/swc_clock.c ****     static int16_t x_hour, y_hour, x_colon, y_colon, x_minute, y_minute;
 106:source\asw/swc_clock.c ****     static boolean_t pos_calculated = FALSE;
 107:source\asw/swc_clock.c **** 
 108:source\asw/swc_clock.c ****     if (!pos_calculated) {
 276              		.loc 1 108 0
 277 0024 F378     		ldrb	r3, [r6, #3]	@ zero_extendqisi2
 278 0026 002B     		cmp	r3, #0
 279 0028 52D1     		bne	.L20
 280              	.LBB41:
 109:source\asw/swc_clock.c ****         char hourStr[] = "88";
 281              		.loc 1 109 0
 282 002a 664B     		ldr	r3, .L32+8
 283 002c 1B68     		ldr	r3, [r3]
 284 002e ADF82430 		strh	r3, [sp, #36]	@ movhi
 285 0032 1A0C     		lsrs	r2, r3, #16
 286 0034 8DF82620 		strb	r2, [sp, #38]
 110:source\asw/swc_clock.c ****         char colonStr[] = ":";
 287              		.loc 1 110 0
 288 0038 3A21     		movs	r1, #58
 289 003a ADF81410 		strh	r1, [sp, #20]	@ movhi
 111:source\asw/swc_clock.c ****         char minStr[] = "88";
 290              		.loc 1 111 0
 291 003e ADF82830 		strh	r3, [sp, #40]	@ movhi
 292 0042 8DF82A20 		strb	r2, [sp, #42]
 112:source\asw/swc_clock.c **** 
 113:source\asw/swc_clock.c ****         int16_t x1, y1;
 114:source\asw/swc_clock.c ****         uint16_t w_h, w_c, w_m, h;
 115:source\asw/swc_clock.c **** 
 116:source\asw/swc_clock.c ****         TFT_getTextBounds(hourStr, 0, 0, &x1, &y1, &w_h, &h);
 293              		.loc 1 116 0
 294 0046 0DF12207 		add	r7, sp, #34
 295 004a 0297     		str	r7, [sp, #8]
 296 004c 07AB     		add	r3, sp, #28
 297 004e 0193     		str	r3, [sp, #4]
 298 0050 0DF11A06 		add	r6, sp, #26
 299 0054 0096     		str	r6, [sp]
 300 0056 06AB     		add	r3, sp, #24
 301 0058 0022     		movs	r2, #0
 302 005a 1146     		mov	r1, r2
 303 005c 09A8     		add	r0, sp, #36
 304 005e FFF7FEFF 		bl	TFT_getTextBounds
 305              	.LVL33:
 117:source\asw/swc_clock.c ****         TFT_getTextBounds(colonStr, 0, 0, &x1, &y1, &w_c, &h);
 306              		.loc 1 117 0
 307 0062 0297     		str	r7, [sp, #8]
 308 0064 0DF11E03 		add	r3, sp, #30
 309 0068 0193     		str	r3, [sp, #4]
 310 006a 0096     		str	r6, [sp]
 311 006c 06AB     		add	r3, sp, #24
 312 006e 0022     		movs	r2, #0
 313 0070 1146     		mov	r1, r2
ARM GAS  C:\Users\bolob\AppData\Local\Temp\cchrnVjX.s 			page 20


 314 0072 05A8     		add	r0, sp, #20
 315 0074 FFF7FEFF 		bl	TFT_getTextBounds
 316              	.LVL34:
 118:source\asw/swc_clock.c ****         TFT_getTextBounds(minStr, 0, 0, &x1, &y1, &w_m, &h);
 317              		.loc 1 118 0
 318 0078 0297     		str	r7, [sp, #8]
 319 007a 08AB     		add	r3, sp, #32
 320 007c 0193     		str	r3, [sp, #4]
 321 007e 0096     		str	r6, [sp]
 322 0080 06AB     		add	r3, sp, #24
 323 0082 0022     		movs	r2, #0
 324 0084 1146     		mov	r1, r2
 325 0086 0AA8     		add	r0, sp, #40
 326 0088 FFF7FEFF 		bl	TFT_getTextBounds
 327              	.LVL35:
 119:source\asw/swc_clock.c **** 
 120:source\asw/swc_clock.c ****         int total_w = w_h + w_c + w_m;
 328              		.loc 1 120 0
 329 008c BDF81C30 		ldrh	r3, [sp, #28]
 330 0090 BDF81E60 		ldrh	r6, [sp, #30]
 331 0094 9A19     		adds	r2, r3, r6
 332 0096 BDF82010 		ldrh	r1, [sp, #32]
 333 009a 1144     		add	r1, r1, r2
 334              	.LVL36:
 121:source\asw/swc_clock.c ****         int base_x = (CFG_TFT_WIDTH - total_w) / 2;
 335              		.loc 1 121 0
 336 009c C1F18002 		rsb	r2, r1, #128
 337 00a0 02EBD272 		add	r2, r2, r2, lsr #31
 338              	.LVL37:
 122:source\asw/swc_clock.c ****         int base_y = (CFG_TFT_HEIGHT - h) / 2;
 339              		.loc 1 122 0
 340 00a4 BDF82210 		ldrh	r1, [sp, #34]
 341              	.LVL38:
 342 00a8 C1F1A001 		rsb	r1, r1, #160
 343 00ac 01EBD171 		add	r1, r1, r1, lsr #31
 344              	.LVL39:
 123:source\asw/swc_clock.c **** 
 124:source\asw/swc_clock.c ****         x_hour = base_x;
 345              		.loc 1 124 0
 346 00b0 42F34F02 		sbfx	r2, r2, #1, #16
 347              	.LVL40:
 348 00b4 4148     		ldr	r0, .L32
 349 00b6 8280     		strh	r2, [r0, #4]	@ movhi
 125:source\asw/swc_clock.c ****         x_colon = x_hour + w_h;
 350              		.loc 1 125 0
 351 00b8 1A44     		add	r2, r2, r3
 352 00ba 93B2     		uxth	r3, r2
 353              	.LVL41:
 354 00bc C380     		strh	r3, [r0, #6]	@ movhi
 126:source\asw/swc_clock.c ****         x_minute = x_colon + w_c;
 355              		.loc 1 126 0
 356 00be 3344     		add	r3, r3, r6
 357 00c0 0381     		strh	r3, [r0, #8]	@ movhi
 127:source\asw/swc_clock.c **** 
 128:source\asw/swc_clock.c ****         y_hour = y_colon = y_minute = base_y;
 358              		.loc 1 128 0
 359 00c2 41F34F03 		sbfx	r3, r1, #1, #16
ARM GAS  C:\Users\bolob\AppData\Local\Temp\cchrnVjX.s 			page 21


 360 00c6 4381     		strh	r3, [r0, #10]	@ movhi
 361 00c8 8381     		strh	r3, [r0, #12]	@ movhi
 362 00ca C381     		strh	r3, [r0, #14]	@ movhi
 129:source\asw/swc_clock.c **** 
 130:source\asw/swc_clock.c ****         pos_calculated = TRUE;
 363              		.loc 1 130 0
 364 00cc 0123     		movs	r3, #1
 365 00ce C370     		strb	r3, [r0, #3]
 366              	.LVL42:
 367              	.L20:
 368              	.LBE41:
 131:source\asw/swc_clock.c ****     }
 132:source\asw/swc_clock.c **** 
 133:source\asw/swc_clock.c ****     // === Update hour display if time or inversion changed ===
 134:source\asw/swc_clock.c ****     if (hour != last_hour || data.invHours != last_invHours) {
 369              		.loc 1 134 0
 370 00d0 3D4B     		ldr	r3, .L32+12
 371 00d2 1B78     		ldrb	r3, [r3]	@ zero_extendqisi2
 372 00d4 9D42     		cmp	r5, r3
 373 00d6 05D1     		bne	.L21
 374              		.loc 1 134 0 is_stmt 0 discriminator 1
 375 00d8 9DF83020 		ldrb	r2, [sp, #48]	@ zero_extendqisi2
 376 00dc 374B     		ldr	r3, .L32
 377 00de 1B7C     		ldrb	r3, [r3, #16]	@ zero_extendqisi2
 378 00e0 9A42     		cmp	r2, r3
 379 00e2 20D0     		beq	.L22
 380              	.L21:
 381              	.LBB42:
 135:source\asw/swc_clock.c ****         last_hour = hour;
 382              		.loc 1 135 0 is_stmt 1
 383 00e4 384B     		ldr	r3, .L32+12
 384 00e6 1D70     		strb	r5, [r3]
 136:source\asw/swc_clock.c ****         last_invHours = data.invHours;
 385              		.loc 1 136 0
 386 00e8 9DF83060 		ldrb	r6, [sp, #48]	@ zero_extendqisi2
 387 00ec 334B     		ldr	r3, .L32
 388 00ee 1E74     		strb	r6, [r3, #16]
 137:source\asw/swc_clock.c **** 
 138:source\asw/swc_clock.c ****         char hourStr[3];
 139:source\asw/swc_clock.c ****         sprintf(hourStr, "%02d", hour);
 389              		.loc 1 139 0
 390 00f0 2A46     		mov	r2, r5
 391 00f2 3649     		ldr	r1, .L32+16
 392 00f4 0AA8     		add	r0, sp, #40
 393 00f6 FFF7FEFF 		bl	sprintf
 394              	.LVL43:
 140:source\asw/swc_clock.c **** 
 141:source\asw/swc_clock.c ****         if (data.invHours) {
 395              		.loc 1 141 0
 396 00fa 2EB1     		cbz	r6, .L23
 142:source\asw/swc_clock.c ****             TFT_setColors(BLACK, WHITE);
 397              		.loc 1 142 0
 398 00fc 4FF6FF71 		movw	r1, #65535
 399 0100 0020     		movs	r0, #0
 400 0102 FFF7FEFF 		bl	TFT_setColors
 401              	.LVL44:
 402 0106 04E0     		b	.L24
ARM GAS  C:\Users\bolob\AppData\Local\Temp\cchrnVjX.s 			page 22


 403              	.L23:
 143:source\asw/swc_clock.c ****         } else {
 144:source\asw/swc_clock.c ****             TFT_setColors(WHITE, BLACK);
 404              		.loc 1 144 0
 405 0108 0021     		movs	r1, #0
 406 010a 4FF6FF70 		movw	r0, #65535
 407 010e FFF7FEFF 		bl	TFT_setColors
 408              	.LVL45:
 409              	.L24:
 145:source\asw/swc_clock.c ****         }
 146:source\asw/swc_clock.c **** 
 147:source\asw/swc_clock.c ****         TFT_setCursor(x_hour, y_hour);
 410              		.loc 1 147 0
 411 0112 2A4B     		ldr	r3, .L32
 412 0114 B3F90E10 		ldrsh	r1, [r3, #14]
 413 0118 B3F90400 		ldrsh	r0, [r3, #4]
 414 011c FFF7FEFF 		bl	TFT_setCursor
 415              	.LVL46:
 148:source\asw/swc_clock.c ****         TFT_print(hourStr);
 416              		.loc 1 148 0
 417 0120 0AA8     		add	r0, sp, #40
 418 0122 FFF7FEFF 		bl	TFT_print
 419              	.LVL47:
 420              	.L22:
 421              	.LBE42:
 149:source\asw/swc_clock.c ****     }
 150:source\asw/swc_clock.c **** 
 151:source\asw/swc_clock.c ****     // === Update minute display if time or inversion changed ===
 152:source\asw/swc_clock.c ****     if (minute != last_minute || data.invMinutes != last_invMinutes) {
 422              		.loc 1 152 0
 423 0126 284B     		ldr	r3, .L32+12
 424 0128 5B78     		ldrb	r3, [r3, #1]	@ zero_extendqisi2
 425 012a 9C42     		cmp	r4, r3
 426 012c 05D1     		bne	.L25
 427              		.loc 1 152 0 is_stmt 0 discriminator 1
 428 012e 9DF83120 		ldrb	r2, [sp, #49]	@ zero_extendqisi2
 429 0132 224B     		ldr	r3, .L32
 430 0134 5B7C     		ldrb	r3, [r3, #17]	@ zero_extendqisi2
 431 0136 9A42     		cmp	r2, r3
 432 0138 20D0     		beq	.L26
 433              	.L25:
 434              	.LBB43:
 153:source\asw/swc_clock.c ****         last_minute = minute;
 435              		.loc 1 153 0 is_stmt 1
 436 013a 234B     		ldr	r3, .L32+12
 437 013c 5C70     		strb	r4, [r3, #1]
 154:source\asw/swc_clock.c ****         last_invMinutes = data.invMinutes;
 438              		.loc 1 154 0
 439 013e 9DF83150 		ldrb	r5, [sp, #49]	@ zero_extendqisi2
 440              	.LVL48:
 441 0142 1E4B     		ldr	r3, .L32
 442 0144 5D74     		strb	r5, [r3, #17]
 155:source\asw/swc_clock.c **** 
 156:source\asw/swc_clock.c ****         char minStr[3];
 157:source\asw/swc_clock.c ****         sprintf(minStr, "%02d", minute);
 443              		.loc 1 157 0
 444 0146 2246     		mov	r2, r4
ARM GAS  C:\Users\bolob\AppData\Local\Temp\cchrnVjX.s 			page 23


 445 0148 2049     		ldr	r1, .L32+16
 446 014a 0AA8     		add	r0, sp, #40
 447 014c FFF7FEFF 		bl	sprintf
 448              	.LVL49:
 158:source\asw/swc_clock.c **** 
 159:source\asw/swc_clock.c ****         if (data.invMinutes) {
 449              		.loc 1 159 0
 450 0150 2DB1     		cbz	r5, .L27
 160:source\asw/swc_clock.c ****             TFT_setColors(BLACK, WHITE);
 451              		.loc 1 160 0
 452 0152 4FF6FF71 		movw	r1, #65535
 453 0156 0020     		movs	r0, #0
 454 0158 FFF7FEFF 		bl	TFT_setColors
 455              	.LVL50:
 456 015c 04E0     		b	.L28
 457              	.L27:
 161:source\asw/swc_clock.c ****         } else {
 162:source\asw/swc_clock.c ****             TFT_setColors(WHITE, BLACK);
 458              		.loc 1 162 0
 459 015e 0021     		movs	r1, #0
 460 0160 4FF6FF70 		movw	r0, #65535
 461 0164 FFF7FEFF 		bl	TFT_setColors
 462              	.LVL51:
 463              	.L28:
 163:source\asw/swc_clock.c ****         }
 164:source\asw/swc_clock.c **** 
 165:source\asw/swc_clock.c ****         TFT_setCursor(x_minute, y_minute);
 464              		.loc 1 165 0
 465 0168 144B     		ldr	r3, .L32
 466 016a B3F90A10 		ldrsh	r1, [r3, #10]
 467 016e B3F90800 		ldrsh	r0, [r3, #8]
 468 0172 FFF7FEFF 		bl	TFT_setCursor
 469              	.LVL52:
 166:source\asw/swc_clock.c ****         TFT_print(minStr);
 470              		.loc 1 166 0
 471 0176 0AA8     		add	r0, sp, #40
 472 0178 FFF7FEFF 		bl	TFT_print
 473              	.LVL53:
 474              	.L26:
 475              	.LBE43:
 167:source\asw/swc_clock.c ****     }
 168:source\asw/swc_clock.c **** 
 169:source\asw/swc_clock.c ****     // === Always toggle colon ===
 170:source\asw/swc_clock.c ****     char colonStr[2];
 171:source\asw/swc_clock.c ****     sprintf(colonStr, show_colon ? ":" : " ");
 476              		.loc 1 171 0
 477 017c 124B     		ldr	r3, .L32+12
 478 017e 9B78     		ldrb	r3, [r3, #2]	@ zero_extendqisi2
 479 0180 0BB1     		cbz	r3, .L30
 480 0182 1349     		ldr	r1, .L32+20
 481 0184 00E0     		b	.L29
 482              	.L30:
 483 0186 1349     		ldr	r1, .L32+24
 484              	.L29:
 485              		.loc 1 171 0 is_stmt 0 discriminator 4
 486 0188 0BA8     		add	r0, sp, #44
 487 018a FFF7FEFF 		bl	sprintf
ARM GAS  C:\Users\bolob\AppData\Local\Temp\cchrnVjX.s 			page 24


 488              	.LVL54:
 172:source\asw/swc_clock.c **** 
 173:source\asw/swc_clock.c ****     TFT_setColors(WHITE, BLACK);
 489              		.loc 1 173 0 is_stmt 1 discriminator 4
 490 018e 0021     		movs	r1, #0
 491 0190 4FF6FF70 		movw	r0, #65535
 492 0194 FFF7FEFF 		bl	TFT_setColors
 493              	.LVL55:
 174:source\asw/swc_clock.c ****     TFT_setCursor(x_colon, y_colon);
 494              		.loc 1 174 0 discriminator 4
 495 0198 084B     		ldr	r3, .L32
 496 019a B3F90C10 		ldrsh	r1, [r3, #12]
 497 019e B3F90600 		ldrsh	r0, [r3, #6]
 498 01a2 FFF7FEFF 		bl	TFT_setCursor
 499              	.LVL56:
 175:source\asw/swc_clock.c ****     TFT_print(colonStr);
 500              		.loc 1 175 0 discriminator 4
 501 01a6 0BA8     		add	r0, sp, #44
 502 01a8 FFF7FEFF 		bl	TFT_print
 503              	.LVL57:
 176:source\asw/swc_clock.c **** 
 177:source\asw/swc_clock.c ****     show_colon = !show_colon;
 504              		.loc 1 177 0 discriminator 4
 505 01ac 064A     		ldr	r2, .L32+12
 506 01ae 9378     		ldrb	r3, [r2, #2]	@ zero_extendqisi2
 507 01b0 B3FA83F3 		clz	r3, r3
 508 01b4 5B09     		lsrs	r3, r3, #5
 509 01b6 9370     		strb	r3, [r2, #2]
 178:source\asw/swc_clock.c ****     /* USER CODE END CLOCK_display_run */
 179:source\asw/swc_clock.c **** }
 510              		.loc 1 179 0 discriminator 4
 511 01b8 0FB0     		add	sp, sp, #60
 512              		.cfi_def_cfa_offset 20
 513              		@ sp needed
 514 01ba F0BD     		pop	{r4, r5, r6, r7, pc}
 515              	.LVL58:
 516              	.L33:
 517              		.align	2
 518              	.L32:
 519 01bc 00000000 		.word	.LANCHOR0
 520 01c0 00000000 		.word	SO_DISPLAYDATA_signal
 521 01c4 10000000 		.word	.LC2
 522 01c8 00000000 		.word	.LANCHOR1
 523 01cc 08000000 		.word	.LC3
 524 01d0 00000000 		.word	.LC0
 525 01d4 04000000 		.word	.LC1
 526              		.cfi_endproc
 527              	.LFE135:
 528              		.size	CLOCK_display_run, .-CLOCK_display_run
 529              		.global	g_minutes
 530              		.global	g_hours
 531              		.data
 532              		.set	.LANCHOR1,. + 0
 533              		.type	last_hour.7646, %object
 534              		.size	last_hour.7646, 1
 535              	last_hour.7646:
 536 0000 FF       		.byte	-1
ARM GAS  C:\Users\bolob\AppData\Local\Temp\cchrnVjX.s 			page 25


 537              		.type	last_minute.7647, %object
 538              		.size	last_minute.7647, 1
 539              	last_minute.7647:
 540 0001 FF       		.byte	-1
 541              		.type	show_colon.7650, %object
 542              		.size	show_colon.7650, 1
 543              	show_colon.7650:
 544 0002 01       		.byte	1
 545              		.section	.rodata.str1.4,"aMS",%progbits,1
 546              		.align	2
 547              	.LC0:
 548 0000 3A00     		.ascii	":\000"
 549 0002 0000     		.space	2
 550              	.LC1:
 551 0004 2000     		.ascii	" \000"
 552 0006 0000     		.space	2
 553              	.LC3:
 554 0008 25303264 		.ascii	"%02d\000"
 554      00
 555 000d 000000   		.space	3
 556              	.LC2:
 557 0010 383800   		.ascii	"88\000"
 558              		.bss
 559              		.align	1
 560              		.set	.LANCHOR0,. + 0
 561              		.type	containerState.7642, %object
 562              		.size	containerState.7642, 1
 563              	containerState.7642:
 564 0000 00       		.space	1
 565              		.type	g_hours, %object
 566              		.size	g_hours, 1
 567              	g_hours:
 568 0001 00       		.space	1
 569              		.type	g_minutes, %object
 570              		.size	g_minutes, 1
 571              	g_minutes:
 572 0002 00       		.space	1
 573              		.type	pos_calculated.7660, %object
 574              		.size	pos_calculated.7660, 1
 575              	pos_calculated.7660:
 576 0003 00       		.space	1
 577              		.type	x_hour.7654, %object
 578              		.size	x_hour.7654, 2
 579              	x_hour.7654:
 580 0004 0000     		.space	2
 581              		.type	x_colon.7656, %object
 582              		.size	x_colon.7656, 2
 583              	x_colon.7656:
 584 0006 0000     		.space	2
 585              		.type	x_minute.7658, %object
 586              		.size	x_minute.7658, 2
 587              	x_minute.7658:
 588 0008 0000     		.space	2
 589              		.type	y_minute.7659, %object
 590              		.size	y_minute.7659, 2
 591              	y_minute.7659:
 592 000a 0000     		.space	2
ARM GAS  C:\Users\bolob\AppData\Local\Temp\cchrnVjX.s 			page 26


 593              		.type	y_colon.7657, %object
 594              		.size	y_colon.7657, 2
 595              	y_colon.7657:
 596 000c 0000     		.space	2
 597              		.type	y_hour.7655, %object
 598              		.size	y_hour.7655, 2
 599              	y_hour.7655:
 600 000e 0000     		.space	2
 601              		.type	last_invHours.7648, %object
 602              		.size	last_invHours.7648, 1
 603              	last_invHours.7648:
 604 0010 00       		.space	1
 605              		.type	last_invMinutes.7649, %object
 606              		.size	last_invMinutes.7649, 1
 607              	last_invMinutes.7649:
 608 0011 00       		.space	1
 609              		.text
 610              	.Letext0:
 611              		.file 4 "c:\\program files (x86)\\cypress\\psoc creator\\4.4\\psoc creator\\import\\gnu\\arm\\5.4.
 612              		.file 5 "c:\\program files (x86)\\cypress\\psoc creator\\4.4\\psoc creator\\import\\gnu\\arm\\5.4.
 613              		.file 6 "c:\\program files (x86)\\cypress\\psoc creator\\4.4\\psoc creator\\import\\gnu\\arm\\5.4.
 614              		.file 7 "Generated_Source\\PSoC5/ErikaOS_1_common_ee_types.inc"
 615              		.file 8 "Generated_Source\\PSoC5/ErikaOS_1_cortex_mx_ee_cpu.inc"
 616              		.file 9 "Generated_Source\\PSoC5/ErikaOS_1_ee_oo_common.inc"
 617              		.file 10 ".\\source\\bsw/global.h"
 618              		.file 11 ".\\source\\rte/rte_types.h"
 619              		.file 12 ".\\source\\rte/rte.h"
 620              		.file 13 ".\\source\\rte/sc_event_type.h"
 621              		.file 14 ".\\source\\rte/sc_displaydata_type.h"
 622              		.file 15 "./clock_container.h"
 623              		.file 16 ".\\source\\bsw\\tft/tft.h"
 624              		.file 17 "Generated_Source\\PSoC5/ErikaOS_1_ee_oo_intfunc.inc"
 625              		.file 18 "Generated_Source\\PSoC5/ErikaOS_1_cortex_mx_ee_context.inc"
 626              		.file 19 "Generated_Source\\PSoC5/ErikaOS_1_common_ee_primitives.inc"
 627              		.file 20 "Generated_Source\\PSoC5/core_cm3.h"
 628              		.file 21 ".\\source\\rte/sp_common.h"
 629              		.file 22 "Generated_Source\\PSoC5/ErikaOS_1_ee_oo_kernel.inc"
 630              		.file 23 "c:\\program files (x86)\\cypress\\psoc creator\\4.4\\psoc creator\\import\\gnu\\arm\\5.4