ARM GAS  C:\Users\bolob\AppData\Local\Temp\ccEVpAIz.s 			page 1


   1              		.syntax unified
   2              		.cpu cortex-m3
   3              		.fpu softvfp
   4              		.eabi_attribute 20, 1
   5              		.eabi_attribute 21, 1
   6              		.eabi_attribute 23, 3
   7              		.eabi_attribute 24, 1
   8              		.eabi_attribute 25, 1
   9              		.eabi_attribute 26, 1
  10              		.eabi_attribute 30, 1
  11              		.eabi_attribute 34, 1
  12              		.eabi_attribute 18, 4
  13              		.thumb
  14              		.syntax unified
  15              		.file	"swc_control.c"
  16              		.text
  17              	.Ltext0:
  18              		.cfi_sections	.debug_frame
  19              		.section	.text.CONTROL_calcControl_run,"ax",%progbits
  20              		.align	2
  21              		.global	CONTROL_calcControl_run
  22              		.thumb
  23              		.thumb_func
  24              		.type	CONTROL_calcControl_run, %function
  25              	CONTROL_calcControl_run:
  26              	.LFB143:
  27              		.file 1 "source\\asw\\swc_control.c"
   1:source\asw/swc_control.c **** /*
   2:source\asw/swc_control.c ****  * Filename: swc_control.c
   3:source\asw/swc_control.c ****  *
   4:source\asw/swc_control.c ****  * Author: Autogenerated by H-DA RTE Generator, (c) Prof. Fromm
   5:source\asw/swc_control.c ****  *
   6:source\asw/swc_control.c ****  * description: Does the necessary calculation
   7:source\asw/swc_control.c ****  * name: swc_control
   8:source\asw/swc_control.c ****  * shortname: control
   9:source\asw/swc_control.c ****  *
  10:source\asw/swc_control.c ****  */
  11:source\asw/swc_control.c **** 
  12:source\asw/swc_control.c **** #include "project.h"
  13:source\asw/swc_control.c **** #include "global.h"
  14:source\asw/swc_control.c **** #include "rte.h"
  15:source\asw/swc_control.c **** #include "rte_types.h"
  16:source\asw/swc_control.c **** #include "swc_control.h"
  17:source\asw/swc_control.c **** 
  18:source\asw/swc_control.c **** 
  19:source\asw/swc_control.c **** 
  20:source\asw/swc_control.c **** /* USER CODE START SWC_CONTROL_INCLUDE */
  21:source\asw/swc_control.c **** 
  22:source\asw/swc_control.c **** /* USER CODE END SWC_CONTROL_INCLUDE */
  23:source\asw/swc_control.c **** 
  24:source\asw/swc_control.c **** 
  25:source\asw/swc_control.c **** #include "sp_common.h"
  26:source\asw/swc_control.c **** 
  27:source\asw/swc_control.c **** /* USER CODE START SWC_CONTROL_USERDEFINITIONS */
  28:source\asw/swc_control.c **** 
  29:source\asw/swc_control.c **** /* USER CODE END SWC_CONTROL_USERDEFINITIONS */
  30:source\asw/swc_control.c **** 
ARM GAS  C:\Users\bolob\AppData\Local\Temp\ccEVpAIz.s 			page 2


  31:source\asw/swc_control.c **** 
  32:source\asw/swc_control.c **** 
  33:source\asw/swc_control.c **** /*
  34:source\asw/swc_control.c ****  * component: swc_control
  35:source\asw/swc_control.c ****  * cycletime: 0
  36:source\asw/swc_control.c ****  * description: Checks the value of the joystick signal.
  37:source\asw/swc_control.c ****  * events: ev_joystick_onUpdate
  38:source\asw/swc_control.c ****  * name: CONTROL_calcControl_run
  39:source\asw/swc_control.c ****  * shortname: calcControl
  40:source\asw/swc_control.c ****  * signalIN: so_joystick
  41:source\asw/swc_control.c ****  * signalOUT: so_speed
  42:source\asw/swc_control.c ****  * task: tsk_control
  43:source\asw/swc_control.c ****  */
  44:source\asw/swc_control.c **** void CONTROL_calcControl_run(RTE_event ev){
  28              		.loc 1 44 0
  29              		.cfi_startproc
  30              		@ args = 0, pretend = 0, frame = 8
  31              		@ frame_needed = 0, uses_anonymous_args = 0
  32              	.LVL0:
  33 0000 30B5     		push	{r4, r5, lr}
  34              		.cfi_def_cfa_offset 12
  35              		.cfi_offset 4, -12
  36              		.cfi_offset 5, -8
  37              		.cfi_offset 14, -4
  38 0002 83B0     		sub	sp, sp, #12
  39              		.cfi_def_cfa_offset 24
  45:source\asw/swc_control.c **** 	
  46:source\asw/swc_control.c **** 	/* USER CODE START CONTROL_calcControl_run */
  47:source\asw/swc_control.c ****     // Notify that the tak has been called
  48:source\asw/swc_control.c ****     WD_Alive(WDT_MASK_RUN_CALCCONTROL);
  40              		.loc 1 48 0
  41 0004 0220     		movs	r0, #2
  42              	.LVL1:
  43 0006 FFF7FEFF 		bl	WD_Alive
  44              	.LVL2:
  45              	.LBB7:
  46              	.LBB8:
  47              		.file 2 ".\\source\\rte/sc_joystick.h"
   1:.\source\rte/sc_joystick.h **** 
   2:.\source\rte/sc_joystick.h **** 
   3:.\source\rte/sc_joystick.h **** /**
   4:.\source\rte/sc_joystick.h ****  *  file    SC_JOYSTICK_signal.h
   5:.\source\rte/sc_joystick.h ****  *
   6:.\source\rte/sc_joystick.h ****  *  brief   signal base class for signal sc_joystick
   7:.\source\rte/sc_joystick.h ****  *
   8:.\source\rte/sc_joystick.h ****  *  author  Autogenerated, Peter Fromm       <peter.fromm@h-da.de>
   9:.\source\rte/sc_joystick.h ****  *
  10:.\source\rte/sc_joystick.h ****  * description: Joystick representation
  11:.\source\rte/sc_joystick.h ****  * name: sc_joystick
  12:.\source\rte/sc_joystick.h ****  * shortname: joystick
  13:.\source\rte/sc_joystick.h ****  *
  14:.\source\rte/sc_joystick.h ****  */
  15:.\source\rte/sc_joystick.h **** 
  16:.\source\rte/sc_joystick.h **** 
  17:.\source\rte/sc_joystick.h **** 
  18:.\source\rte/sc_joystick.h **** #ifndef SC_JOYSTICK_SIGNAL_H_INCLUDED
  19:.\source\rte/sc_joystick.h **** #define SC_JOYSTICK_SIGNAL_H_INCLUDED
ARM GAS  C:\Users\bolob\AppData\Local\Temp\ccEVpAIz.s 			page 3


  20:.\source\rte/sc_joystick.h **** 
  21:.\source\rte/sc_joystick.h **** /*================================================[ public includes  ]=============================
  22:.\source\rte/sc_joystick.h **** #include "global.h"
  23:.\source\rte/sc_joystick.h **** #include "project.h"
  24:.\source\rte/sc_joystick.h **** #include "rte.h"
  25:.\source\rte/sc_joystick.h **** #include "rte_types.h"
  26:.\source\rte/sc_joystick.h **** 
  27:.\source\rte/sc_joystick.h **** #include "sc_joystick_type.h"
  28:.\source\rte/sc_joystick.h **** 
  29:.\source\rte/sc_joystick.h **** 
  30:.\source\rte/sc_joystick.h **** /**************************************************************************************************
  31:.\source\rte/sc_joystick.h **** /* The driver API block																						*/
  32:.\source\rte/sc_joystick.h **** /**************************************************************************************************
  33:.\source\rte/sc_joystick.h ****                                                                                                    
  34:.\source\rte/sc_joystick.h **** /**
  35:.\source\rte/sc_joystick.h ****  *  Definition of function types for driver interfaces.
  36:.\source\rte/sc_joystick.h ****  *  I-Port
  37:.\source\rte/sc_joystick.h ****  */
  38:.\source\rte/sc_joystick.h **** typedef RC_t (*SC_JOYSTICK_driverIn_t)(SC_JOYSTICK_data_t * const);
  39:.\source\rte/sc_joystick.h **** 
  40:.\source\rte/sc_joystick.h **** /**
  41:.\source\rte/sc_joystick.h ****  *  Definition of function types for driver interfaces.
  42:.\source\rte/sc_joystick.h ****  *  O-Port
  43:.\source\rte/sc_joystick.h ****  */
  44:.\source\rte/sc_joystick.h **** typedef RC_t (*SC_JOYSTICK_driverOut_t)( const SC_JOYSTICK_data_t * const);
  45:.\source\rte/sc_joystick.h **** 
  46:.\source\rte/sc_joystick.h **** 
  47:.\source\rte/sc_joystick.h **** /**************************************************************************************************
  48:.\source\rte/sc_joystick.h **** /* The signal configuration API block																				*/
  49:.\source\rte/sc_joystick.h **** /**************************************************************************************************
  50:.\source\rte/sc_joystick.h **** 
  51:.\source\rte/sc_joystick.h **** /**
  52:.\source\rte/sc_joystick.h ****  * Instances of the struct SC_JOYSTICK_cfg_t represent the signal object configuration.
  53:.\source\rte/sc_joystick.h ****  */
  54:.\source\rte/sc_joystick.h **** struct SC_JOYSTICK_cfg_s
  55:.\source\rte/sc_joystick.h **** {
  56:.\source\rte/sc_joystick.h ****     /**
  57:.\source\rte/sc_joystick.h ****      * Function pointer to the input driver
  58:.\source\rte/sc_joystick.h ****      */
  59:.\source\rte/sc_joystick.h ****     SC_JOYSTICK_driverIn_t const inDriver;
  60:.\source\rte/sc_joystick.h **** 
  61:.\source\rte/sc_joystick.h ****     /**
  62:.\source\rte/sc_joystick.h ****      * Function pointer to the output driver table
  63:.\source\rte/sc_joystick.h ****      */
  64:.\source\rte/sc_joystick.h ****    SC_JOYSTICK_driverOut_t const outDriver;
  65:.\source\rte/sc_joystick.h ****    
  66:.\source\rte/sc_joystick.h ****     /**
  67:.\source\rte/sc_joystick.h ****      * Event onUpdate
  68:.\source\rte/sc_joystick.h ****      */
  69:.\source\rte/sc_joystick.h ****     EventMaskType const evOnUpdate;
  70:.\source\rte/sc_joystick.h ****     
  71:.\source\rte/sc_joystick.h ****     
  72:.\source\rte/sc_joystick.h ****     /**
  73:.\source\rte/sc_joystick.h ****      * Event onError
  74:.\source\rte/sc_joystick.h ****      */
  75:.\source\rte/sc_joystick.h ****     EventMaskType const evOnError;
  76:.\source\rte/sc_joystick.h ****     
ARM GAS  C:\Users\bolob\AppData\Local\Temp\ccEVpAIz.s 			page 4


  77:.\source\rte/sc_joystick.h ****     /**
  78:.\source\rte/sc_joystick.h ****      * Task Count onUpdate
  79:.\source\rte/sc_joystick.h ****      */
  80:.\source\rte/sc_joystick.h ****     size_t const onUpdateTaskCount;
  81:.\source\rte/sc_joystick.h **** 
  82:.\source\rte/sc_joystick.h ****     /**
  83:.\source\rte/sc_joystick.h ****      * Task List onUpdate
  84:.\source\rte/sc_joystick.h ****      */
  85:.\source\rte/sc_joystick.h ****     TaskTypeArray* const onUpdateTasks;
  86:.\source\rte/sc_joystick.h ****     
  87:.\source\rte/sc_joystick.h ****     /**
  88:.\source\rte/sc_joystick.h ****      * Task Count onError
  89:.\source\rte/sc_joystick.h ****      */
  90:.\source\rte/sc_joystick.h ****     size_t const onErrorTaskCount;
  91:.\source\rte/sc_joystick.h **** 
  92:.\source\rte/sc_joystick.h ****     /**
  93:.\source\rte/sc_joystick.h ****      * Task List onError
  94:.\source\rte/sc_joystick.h ****      */
  95:.\source\rte/sc_joystick.h ****     TaskTypeArray* const onErrorTasks;
  96:.\source\rte/sc_joystick.h **** 	
  97:.\source\rte/sc_joystick.h **** 	
  98:.\source\rte/sc_joystick.h **** 	/**
  99:.\source\rte/sc_joystick.h **** 	 * Ressourse is active? We need an additional boolean as a ressource value 0 is valid.
 100:.\source\rte/sc_joystick.h **** 	 */
 101:.\source\rte/sc_joystick.h **** 	 boolean_t const resourceActive;
 102:.\source\rte/sc_joystick.h **** 	 
 103:.\source\rte/sc_joystick.h **** 	/**
 104:.\source\rte/sc_joystick.h **** 	 * Ressourse 
 105:.\source\rte/sc_joystick.h **** 	 */
 106:.\source\rte/sc_joystick.h **** 	 ResourceType const resource;
 107:.\source\rte/sc_joystick.h **** 
 108:.\source\rte/sc_joystick.h **** };                                                                                                 
 109:.\source\rte/sc_joystick.h **** typedef const struct SC_JOYSTICK_cfg_s SC_JOYSTICK_cfg_t;
 110:.\source\rte/sc_joystick.h ****                               
 111:.\source\rte/sc_joystick.h **** /**************************************************************************************************
 112:.\source\rte/sc_joystick.h **** /* The data interface block																							*/
 113:.\source\rte/sc_joystick.h **** /**************************************************************************************************
 114:.\source\rte/sc_joystick.h **** 
 115:.\source\rte/sc_joystick.h ****                                                                                                    
 116:.\source\rte/sc_joystick.h **** 							  
 117:.\source\rte/sc_joystick.h **** /**
 118:.\source\rte/sc_joystick.h ****  * Instances of the struct SC_JOYSTICK_t represent the signal objects.
 119:.\source\rte/sc_joystick.h ****  * A signal object contains the current application value 'value' as well as relevant meta data.
 120:.\source\rte/sc_joystick.h ****  */
 121:.\source\rte/sc_joystick.h **** struct SC_JOYSTICK_s
 122:.\source\rte/sc_joystick.h **** {                                                                                                  
 123:.\source\rte/sc_joystick.h **** 
 124:.\source\rte/sc_joystick.h **** 	/**
 125:.\source\rte/sc_joystick.h **** 	 * Data buffer for the application value
 126:.\source\rte/sc_joystick.h **** 	 */
 127:.\source\rte/sc_joystick.h ****     SC_JOYSTICK_data_t value;
 128:.\source\rte/sc_joystick.h **** 
 129:.\source\rte/sc_joystick.h ****     /**
 130:.\source\rte/sc_joystick.h ****      * Current signal status
 131:.\source\rte/sc_joystick.h ****      */
 132:.\source\rte/sc_joystick.h ****     RTE_signalStatus_t status;
 133:.\source\rte/sc_joystick.h **** 
ARM GAS  C:\Users\bolob\AppData\Local\Temp\ccEVpAIz.s 			page 5


 134:.\source\rte/sc_joystick.h ****     /**
 135:.\source\rte/sc_joystick.h ****      * Current age of the signal (in calling cycles)
 136:.\source\rte/sc_joystick.h ****      */
 137:.\source\rte/sc_joystick.h ****     uint32_t age;
 138:.\source\rte/sc_joystick.h **** 
 139:.\source\rte/sc_joystick.h ****     /**
 140:.\source\rte/sc_joystick.h ****      * Pointer to the signal configuration
 141:.\source\rte/sc_joystick.h ****      */
 142:.\source\rte/sc_joystick.h **** 	const SC_JOYSTICK_cfg_t * const    pSigCfg;
 143:.\source\rte/sc_joystick.h **** 
 144:.\source\rte/sc_joystick.h **** };                                                                                                 
 145:.\source\rte/sc_joystick.h **** typedef struct SC_JOYSTICK_s SC_JOYSTICK_t;
 146:.\source\rte/sc_joystick.h **** 
 147:.\source\rte/sc_joystick.h **** /**************************************************************************************************
 148:.\source\rte/sc_joystick.h **** /* Signal initialisation   																							*/
 149:.\source\rte/sc_joystick.h **** /**************************************************************************************************
 150:.\source\rte/sc_joystick.h **** 
 151:.\source\rte/sc_joystick.h **** /**
 152:.\source\rte/sc_joystick.h ****  * Initializes a signal instance with a passed init value.
 153:.\source\rte/sc_joystick.h ****  * Depending on the configured conversion or scaling function the raw_value will be calculated.
 154:.\source\rte/sc_joystick.h ****  * Signal status will change from RTE_SIGNALSTATUS_STARTUP to RTE_SIGNALSTATUS_INITIALIZED.
 155:.\source\rte/sc_joystick.h ****  *
 156:.\source\rte/sc_joystick.h ****  * @param  SC_JOYSTICK_t * const signal: Pointer to the signal object which will be initialised
 157:.\source\rte/sc_joystick.h ****  * @return RC_t: standard return code, currently only RC_SUCCESS
 158:.\source\rte/sc_joystick.h ****  *
 159:.\source\rte/sc_joystick.h ****  **/
 160:.\source\rte/sc_joystick.h **** inline RC_t RTE_SC_JOYSTICK_init( SC_JOYSTICK_t * const signal )
 161:.\source\rte/sc_joystick.h **** {                                                                                                  
 162:.\source\rte/sc_joystick.h **** 
 163:.\source\rte/sc_joystick.h ****    RC_t ret = RC_SUCCESS;
 164:.\source\rte/sc_joystick.h **** 
 165:.\source\rte/sc_joystick.h ****    //Set value and raw value
 166:.\source\rte/sc_joystick.h ****    signal->value  = SC_JOYSTICK_INIT_DATA;
 167:.\source\rte/sc_joystick.h ****    signal->age    = 0;
 168:.\source\rte/sc_joystick.h ****    signal->status = RTE_SIGNALSTATUS_INITIALIZED;
 169:.\source\rte/sc_joystick.h **** 
 170:.\source\rte/sc_joystick.h ****    return ret;
 171:.\source\rte/sc_joystick.h **** }
 172:.\source\rte/sc_joystick.h **** 
 173:.\source\rte/sc_joystick.h **** /**************************************************************************************************
 174:.\source\rte/sc_joystick.h **** /* Status and timeout control																						*/
 175:.\source\rte/sc_joystick.h **** /**************************************************************************************************
 176:.\source\rte/sc_joystick.h **** 
 177:.\source\rte/sc_joystick.h **** /**
 178:.\source\rte/sc_joystick.h ****  *  Returns the current signal status of the passed signal instance.
 179:.\source\rte/sc_joystick.h ****  *
 180:.\source\rte/sc_joystick.h ****  * @param  SC_JOYSTICK_t * const signal: Pointer to the signal object
 181:.\source\rte/sc_joystick.h ****  * @return  sig_status_t: The current signal status
 182:.\source\rte/sc_joystick.h ****  *
 183:.\source\rte/sc_joystick.h ****  **/
 184:.\source\rte/sc_joystick.h **** inline RTE_signalStatus_t RTE_SC_JOYSTICK_getStatus( const SC_JOYSTICK_t * const signal )
 185:.\source\rte/sc_joystick.h **** {
 186:.\source\rte/sc_joystick.h ****    return signal->status;
 187:.\source\rte/sc_joystick.h **** }
 188:.\source\rte/sc_joystick.h **** 
 189:.\source\rte/sc_joystick.h **** 
 190:.\source\rte/sc_joystick.h **** /**
ARM GAS  C:\Users\bolob\AppData\Local\Temp\ccEVpAIz.s 			page 6


 191:.\source\rte/sc_joystick.h ****  *  Sets a new signal status of the passed signal instance by passing the new status.
 192:.\source\rte/sc_joystick.h ****  *
 193:.\source\rte/sc_joystick.h ****  * @param  SC_JOYSTICK_t * const signal: Pointer to the signal object
 194:.\source\rte/sc_joystick.h ****  * @param  const sig_status_t status: New signal status
 195:.\source\rte/sc_joystick.h ****  * @return RC_t: standard return code, currently only RC_SUCCESS
 196:.\source\rte/sc_joystick.h ****  *
 197:.\source\rte/sc_joystick.h ****  */
 198:.\source\rte/sc_joystick.h **** inline RC_t RTE_SC_JOYSTICK_setStatus( SC_JOYSTICK_t * const signal, const RTE_signalStatus_t statu
 199:.\source\rte/sc_joystick.h **** {
 200:.\source\rte/sc_joystick.h ****    signal->status = status;
 201:.\source\rte/sc_joystick.h ****    size_t taskNum=0;
 202:.\source\rte/sc_joystick.h ****    
 203:.\source\rte/sc_joystick.h ****    //Fire error events in case of invalid state
 204:.\source\rte/sc_joystick.h ****    if (signal->status == RTE_SIGNALSTATUS_INVALID)
 205:.\source\rte/sc_joystick.h ****    {
 206:.\source\rte/sc_joystick.h **** 	    //Pointer to the Taskarray, containing the tasks receiving the onUpdate events
 207:.\source\rte/sc_joystick.h **** 		TaskTypeArray* pTaskArray = signal->pSigCfg->onErrorTasks;
 208:.\source\rte/sc_joystick.h **** 
 209:.\source\rte/sc_joystick.h **** 		if (0 != signal->pSigCfg->evOnError && NULL != pTaskArray){
 210:.\source\rte/sc_joystick.h **** 			for( taskNum=0 ; taskNum < signal->pSigCfg->onErrorTaskCount ;taskNum++){
 211:.\source\rte/sc_joystick.h **** 				TaskType task = (*pTaskArray)[taskNum];
 212:.\source\rte/sc_joystick.h **** 				SetEvent( task, signal->pSigCfg->evOnError);
 213:.\source\rte/sc_joystick.h **** 			}
 214:.\source\rte/sc_joystick.h **** 		}
 215:.\source\rte/sc_joystick.h ****    }
 216:.\source\rte/sc_joystick.h ****    
 217:.\source\rte/sc_joystick.h ****    return RC_SUCCESS;
 218:.\source\rte/sc_joystick.h **** }
 219:.\source\rte/sc_joystick.h **** 
 220:.\source\rte/sc_joystick.h **** 
 221:.\source\rte/sc_joystick.h **** /**
 222:.\source\rte/sc_joystick.h ****  * Returns the count of refreshing trials (refresh, set or set_raw) that failed.
 223:.\source\rte/sc_joystick.h ****  * Prerquisite: The signal is refreshed cyclically
 224:.\source\rte/sc_joystick.h ****  *
 225:.\source\rte/sc_joystick.h ****  * @param  SC_JOYSTICK_t * const signal: Pointer to the signal object
 226:.\source\rte/sc_joystick.h ****  * @return uint32_t: Number of cycles since the signal has been updated for the last time
 227:.\source\rte/sc_joystick.h ****  */
 228:.\source\rte/sc_joystick.h **** inline uint32_t RTE_SC_JOYSTICK_getAge( const SC_JOYSTICK_t * const signal )
 229:.\source\rte/sc_joystick.h **** {
 230:.\source\rte/sc_joystick.h ****    return signal->age;
 231:.\source\rte/sc_joystick.h **** }
 232:.\source\rte/sc_joystick.h **** 
 233:.\source\rte/sc_joystick.h **** /**
 234:.\source\rte/sc_joystick.h ****  * Should be called by application or driver if no new value can be provided.
 235:.\source\rte/sc_joystick.h ****  * @param  SC_JOYSTICK_t * const signal: Pointer to the signal object
 236:.\source\rte/sc_joystick.h ****  * @param uint32_t increment: incrementvalue, typically in [ms]
 237:.\source\rte/sc_joystick.h ****  * @return void
 238:.\source\rte/sc_joystick.h ****  */
 239:.\source\rte/sc_joystick.h **** inline void RTE_SC_JOYSTICK_incAge(  SC_JOYSTICK_t * const signal , uint32_t increment)
 240:.\source\rte/sc_joystick.h **** {
 241:.\source\rte/sc_joystick.h **** 	   //Hack....
 242:.\source\rte/sc_joystick.h **** 	   if ( 0xFFFF0000 > (signal->age + increment) )
 243:.\source\rte/sc_joystick.h **** 	   {
 244:.\source\rte/sc_joystick.h **** 	      signal->age += increment;
 245:.\source\rte/sc_joystick.h **** 	   }
 246:.\source\rte/sc_joystick.h **** }
 247:.\source\rte/sc_joystick.h **** 
ARM GAS  C:\Users\bolob\AppData\Local\Temp\ccEVpAIz.s 			page 7


 248:.\source\rte/sc_joystick.h **** 
 249:.\source\rte/sc_joystick.h **** /**************************************************************************************************
 250:.\source\rte/sc_joystick.h **** /* Application Data read/write Interface																			*/
 251:.\source\rte/sc_joystick.h **** /**************************************************************************************************
 252:.\source\rte/sc_joystick.h **** 
 253:.\source\rte/sc_joystick.h **** /**
 254:.\source\rte/sc_joystick.h ****  * Returns the current application value as pointer to the signal payload.
 255:.\source\rte/sc_joystick.h ****  * Careful: This is not threadsafe!!!
 256:.\source\rte/sc_joystick.h ****  *
 257:.\source\rte/sc_joystick.h ****  * @param  SC_JOYSTICK_t * const signal: Pointer to the signal object
 258:.\source\rte/sc_joystick.h ****  * @return sc_joystick_data_t*: pointer to the current value of the application data buffer
 259:.\source\rte/sc_joystick.h ****  *
 260:.\source\rte/sc_joystick.h ****  **/
 261:.\source\rte/sc_joystick.h **** inline SC_JOYSTICK_data_t* RTE_SC_JOYSTICK_getPtr( SC_JOYSTICK_t * const signal )
 262:.\source\rte/sc_joystick.h **** {               
 263:.\source\rte/sc_joystick.h ****    //Todo: Critical region cannot be protected using return values																						
 264:.\source\rte/sc_joystick.h ****    return &(signal->value);                                                                        
 265:.\source\rte/sc_joystick.h **** }
 266:.\source\rte/sc_joystick.h **** 
 267:.\source\rte/sc_joystick.h **** /**
 268:.\source\rte/sc_joystick.h ****  * Returns the current application value of the passed signal instance.
 269:.\source\rte/sc_joystick.h ****  *
 270:.\source\rte/sc_joystick.h ****  * @param  SC_JOYSTICK_t * const signal: Pointer to the signal object
 271:.\source\rte/sc_joystick.h ****  * @return sc_joystick_data_t: current value of the application data buffer
 272:.\source\rte/sc_joystick.h ****  *
 273:.\source\rte/sc_joystick.h ****  **/
 274:.\source\rte/sc_joystick.h **** inline SC_JOYSTICK_data_t RTE_SC_JOYSTICK_get( const SC_JOYSTICK_t * const signal )
 275:.\source\rte/sc_joystick.h **** {               
 276:.\source\rte/sc_joystick.h ****    //Todo: Critical region cannot be protected using return values																						
 277:.\source\rte/sc_joystick.h ****    return signal->value;                                                                           
  48              		.loc 2 277 0
  49 000a 144B     		ldr	r3, .L9
  50 000c 1B88     		ldrh	r3, [r3]
  51 000e ADF80430 		strh	r3, [sp, #4]	@ movhi
  52 0012 ADF80030 		strh	r3, [sp]	@ movhi
  53              	.LVL3:
  54              	.LBE8:
  55              	.LBE7:
  49:source\asw/swc_control.c ****     
  50:source\asw/swc_control.c ****     // Read out the recent joystick position
  51:source\asw/swc_control.c ****     SC_JOYSTICK_data_t joystickPosition;
  52:source\asw/swc_control.c ****     joystickPosition = RTE_SC_JOYSTICK_get(&SO_JOYSTICK_signal);
  53:source\asw/swc_control.c ****     
  54:source\asw/swc_control.c ****     SC_SPEED_data_t speedData;
  55:source\asw/swc_control.c ****     
  56:source\asw/swc_control.c ****     // If the value is bigger than 0,
  57:source\asw/swc_control.c ****     if(joystickPosition.y > 0){
  56              		.loc 1 57 0
  57 0016 43F30723 		sbfx	r3, r3, #8, #8
  58 001a 002B     		cmp	r3, #0
  59 001c 01DD     		ble	.L2
  58:source\asw/swc_control.c ****         // the sped signal will be set to 2 x the joystick value
  59:source\asw/swc_control.c ****         speedData.currentSpeed = 2 * joystickPosition.y;
  60              		.loc 1 59 0
  61 001e 5B00     		lsls	r3, r3, #1
  62              	.LVL4:
  63 0020 01E0     		b	.L3
ARM GAS  C:\Users\bolob\AppData\Local\Temp\ccEVpAIz.s 			page 8


  64              	.L2:
  60:source\asw/swc_control.c ****     } else {
  61:source\asw/swc_control.c ****         // otherwise th engine value will be
  62:source\asw/swc_control.c ****         speedData.currentSpeed = 0;
  65              		.loc 1 62 0
  66 0022 4FF00003 		mov	r3, #0
  67              	.L3:
  68              	.LVL5:
  69              	.LBB9:
  70              	.LBB10:
  71              		.file 3 ".\\source\\rte/sc_speed.h"
   1:.\source\rte/sc_speed.h **** 
   2:.\source\rte/sc_speed.h **** 
   3:.\source\rte/sc_speed.h **** /**
   4:.\source\rte/sc_speed.h ****  *  file    SC_SPEED_signal.h
   5:.\source\rte/sc_speed.h ****  *
   6:.\source\rte/sc_speed.h ****  *  brief   signal base class for signal sc_speed
   7:.\source\rte/sc_speed.h ****  *
   8:.\source\rte/sc_speed.h ****  *  author  Autogenerated, Peter Fromm       <peter.fromm@h-da.de>
   9:.\source\rte/sc_speed.h ****  *
  10:.\source\rte/sc_speed.h ****  * description: Any speed data type, e.g. control, target, current
  11:.\source\rte/sc_speed.h ****  * name: sc_speed
  12:.\source\rte/sc_speed.h ****  * shortname: speed
  13:.\source\rte/sc_speed.h ****  *
  14:.\source\rte/sc_speed.h ****  */
  15:.\source\rte/sc_speed.h **** 
  16:.\source\rte/sc_speed.h **** 
  17:.\source\rte/sc_speed.h **** 
  18:.\source\rte/sc_speed.h **** #ifndef SC_SPEED_SIGNAL_H_INCLUDED
  19:.\source\rte/sc_speed.h **** #define SC_SPEED_SIGNAL_H_INCLUDED
  20:.\source\rte/sc_speed.h **** 
  21:.\source\rte/sc_speed.h **** /*================================================[ public includes  ]=============================
  22:.\source\rte/sc_speed.h **** #include "global.h"
  23:.\source\rte/sc_speed.h **** #include "project.h"
  24:.\source\rte/sc_speed.h **** #include "rte.h"
  25:.\source\rte/sc_speed.h **** #include "rte_types.h"
  26:.\source\rte/sc_speed.h **** 
  27:.\source\rte/sc_speed.h **** #include "sc_speed_type.h"
  28:.\source\rte/sc_speed.h **** 
  29:.\source\rte/sc_speed.h **** 
  30:.\source\rte/sc_speed.h **** /**************************************************************************************************
  31:.\source\rte/sc_speed.h **** /* The driver API block																						*/
  32:.\source\rte/sc_speed.h **** /**************************************************************************************************
  33:.\source\rte/sc_speed.h ****                                                                                                    
  34:.\source\rte/sc_speed.h **** /**
  35:.\source\rte/sc_speed.h ****  *  Definition of function types for driver interfaces.
  36:.\source\rte/sc_speed.h ****  *  I-Port
  37:.\source\rte/sc_speed.h ****  */
  38:.\source\rte/sc_speed.h **** typedef RC_t (*SC_SPEED_driverIn_t)(SC_SPEED_data_t * const);
  39:.\source\rte/sc_speed.h **** 
  40:.\source\rte/sc_speed.h **** /**
  41:.\source\rte/sc_speed.h ****  *  Definition of function types for driver interfaces.
  42:.\source\rte/sc_speed.h ****  *  O-Port
  43:.\source\rte/sc_speed.h ****  */
  44:.\source\rte/sc_speed.h **** typedef RC_t (*SC_SPEED_driverOut_t)( const SC_SPEED_data_t * const);
  45:.\source\rte/sc_speed.h **** 
  46:.\source\rte/sc_speed.h **** 
ARM GAS  C:\Users\bolob\AppData\Local\Temp\ccEVpAIz.s 			page 9


  47:.\source\rte/sc_speed.h **** /**************************************************************************************************
  48:.\source\rte/sc_speed.h **** /* The signal configuration API block																				*/
  49:.\source\rte/sc_speed.h **** /**************************************************************************************************
  50:.\source\rte/sc_speed.h **** 
  51:.\source\rte/sc_speed.h **** /**
  52:.\source\rte/sc_speed.h ****  * Instances of the struct SC_SPEED_cfg_t represent the signal object configuration.
  53:.\source\rte/sc_speed.h ****  */
  54:.\source\rte/sc_speed.h **** struct SC_SPEED_cfg_s
  55:.\source\rte/sc_speed.h **** {
  56:.\source\rte/sc_speed.h ****     /**
  57:.\source\rte/sc_speed.h ****      * Function pointer to the input driver
  58:.\source\rte/sc_speed.h ****      */
  59:.\source\rte/sc_speed.h ****     SC_SPEED_driverIn_t const inDriver;
  60:.\source\rte/sc_speed.h **** 
  61:.\source\rte/sc_speed.h ****     /**
  62:.\source\rte/sc_speed.h ****      * Function pointer to the output driver table
  63:.\source\rte/sc_speed.h ****      */
  64:.\source\rte/sc_speed.h ****    SC_SPEED_driverOut_t const outDriver;
  65:.\source\rte/sc_speed.h ****    
  66:.\source\rte/sc_speed.h ****     /**
  67:.\source\rte/sc_speed.h ****      * Event onUpdate
  68:.\source\rte/sc_speed.h ****      */
  69:.\source\rte/sc_speed.h ****     EventMaskType const evOnUpdate;
  70:.\source\rte/sc_speed.h ****     
  71:.\source\rte/sc_speed.h ****     
  72:.\source\rte/sc_speed.h ****     /**
  73:.\source\rte/sc_speed.h ****      * Event onError
  74:.\source\rte/sc_speed.h ****      */
  75:.\source\rte/sc_speed.h ****     EventMaskType const evOnError;
  76:.\source\rte/sc_speed.h ****     
  77:.\source\rte/sc_speed.h ****     /**
  78:.\source\rte/sc_speed.h ****      * Task Count onUpdate
  79:.\source\rte/sc_speed.h ****      */
  80:.\source\rte/sc_speed.h ****     size_t const onUpdateTaskCount;
  81:.\source\rte/sc_speed.h **** 
  82:.\source\rte/sc_speed.h ****     /**
  83:.\source\rte/sc_speed.h ****      * Task List onUpdate
  84:.\source\rte/sc_speed.h ****      */
  85:.\source\rte/sc_speed.h ****     TaskTypeArray* const onUpdateTasks;
  86:.\source\rte/sc_speed.h ****     
  87:.\source\rte/sc_speed.h ****     /**
  88:.\source\rte/sc_speed.h ****      * Task Count onError
  89:.\source\rte/sc_speed.h ****      */
  90:.\source\rte/sc_speed.h ****     size_t const onErrorTaskCount;
  91:.\source\rte/sc_speed.h **** 
  92:.\source\rte/sc_speed.h ****     /**
  93:.\source\rte/sc_speed.h ****      * Task List onError
  94:.\source\rte/sc_speed.h ****      */
  95:.\source\rte/sc_speed.h ****     TaskTypeArray* const onErrorTasks;
  96:.\source\rte/sc_speed.h **** 	
  97:.\source\rte/sc_speed.h **** 	
  98:.\source\rte/sc_speed.h **** 	/**
  99:.\source\rte/sc_speed.h **** 	 * Ressourse is active? We need an additional boolean as a ressource value 0 is valid.
 100:.\source\rte/sc_speed.h **** 	 */
 101:.\source\rte/sc_speed.h **** 	 boolean_t const resourceActive;
 102:.\source\rte/sc_speed.h **** 	 
 103:.\source\rte/sc_speed.h **** 	/**
ARM GAS  C:\Users\bolob\AppData\Local\Temp\ccEVpAIz.s 			page 10


 104:.\source\rte/sc_speed.h **** 	 * Ressourse 
 105:.\source\rte/sc_speed.h **** 	 */
 106:.\source\rte/sc_speed.h **** 	 ResourceType const resource;
 107:.\source\rte/sc_speed.h **** 
 108:.\source\rte/sc_speed.h **** };                                                                                                 
 109:.\source\rte/sc_speed.h **** typedef const struct SC_SPEED_cfg_s SC_SPEED_cfg_t;
 110:.\source\rte/sc_speed.h ****                               
 111:.\source\rte/sc_speed.h **** /**************************************************************************************************
 112:.\source\rte/sc_speed.h **** /* The data interface block																							*/
 113:.\source\rte/sc_speed.h **** /**************************************************************************************************
 114:.\source\rte/sc_speed.h **** 
 115:.\source\rte/sc_speed.h ****                                                                                                    
 116:.\source\rte/sc_speed.h **** 							  
 117:.\source\rte/sc_speed.h **** /**
 118:.\source\rte/sc_speed.h ****  * Instances of the struct SC_SPEED_t represent the signal objects.
 119:.\source\rte/sc_speed.h ****  * A signal object contains the current application value 'value' as well as relevant meta data.
 120:.\source\rte/sc_speed.h ****  */
 121:.\source\rte/sc_speed.h **** struct SC_SPEED_s
 122:.\source\rte/sc_speed.h **** {                                                                                                  
 123:.\source\rte/sc_speed.h **** 
 124:.\source\rte/sc_speed.h **** 	/**
 125:.\source\rte/sc_speed.h **** 	 * Data buffer for the application value
 126:.\source\rte/sc_speed.h **** 	 */
 127:.\source\rte/sc_speed.h ****     SC_SPEED_data_t value;
 128:.\source\rte/sc_speed.h **** 
 129:.\source\rte/sc_speed.h ****     /**
 130:.\source\rte/sc_speed.h ****      * Current signal status
 131:.\source\rte/sc_speed.h ****      */
 132:.\source\rte/sc_speed.h ****     RTE_signalStatus_t status;
 133:.\source\rte/sc_speed.h **** 
 134:.\source\rte/sc_speed.h ****     /**
 135:.\source\rte/sc_speed.h ****      * Current age of the signal (in calling cycles)
 136:.\source\rte/sc_speed.h ****      */
 137:.\source\rte/sc_speed.h ****     uint32_t age;
 138:.\source\rte/sc_speed.h **** 
 139:.\source\rte/sc_speed.h ****     /**
 140:.\source\rte/sc_speed.h ****      * Pointer to the signal configuration
 141:.\source\rte/sc_speed.h ****      */
 142:.\source\rte/sc_speed.h **** 	const SC_SPEED_cfg_t * const    pSigCfg;
 143:.\source\rte/sc_speed.h **** 
 144:.\source\rte/sc_speed.h **** };                                                                                                 
 145:.\source\rte/sc_speed.h **** typedef struct SC_SPEED_s SC_SPEED_t;
 146:.\source\rte/sc_speed.h **** 
 147:.\source\rte/sc_speed.h **** /**************************************************************************************************
 148:.\source\rte/sc_speed.h **** /* Signal initialisation   																							*/
 149:.\source\rte/sc_speed.h **** /**************************************************************************************************
 150:.\source\rte/sc_speed.h **** 
 151:.\source\rte/sc_speed.h **** /**
 152:.\source\rte/sc_speed.h ****  * Initializes a signal instance with a passed init value.
 153:.\source\rte/sc_speed.h ****  * Depending on the configured conversion or scaling function the raw_value will be calculated.
 154:.\source\rte/sc_speed.h ****  * Signal status will change from RTE_SIGNALSTATUS_STARTUP to RTE_SIGNALSTATUS_INITIALIZED.
 155:.\source\rte/sc_speed.h ****  *
 156:.\source\rte/sc_speed.h ****  * @param  SC_SPEED_t * const signal: Pointer to the signal object which will be initialised
 157:.\source\rte/sc_speed.h ****  * @return RC_t: standard return code, currently only RC_SUCCESS
 158:.\source\rte/sc_speed.h ****  *
 159:.\source\rte/sc_speed.h ****  **/
 160:.\source\rte/sc_speed.h **** inline RC_t RTE_SC_SPEED_init( SC_SPEED_t * const signal )
ARM GAS  C:\Users\bolob\AppData\Local\Temp\ccEVpAIz.s 			page 11


 161:.\source\rte/sc_speed.h **** {                                                                                                  
 162:.\source\rte/sc_speed.h **** 
 163:.\source\rte/sc_speed.h ****    RC_t ret = RC_SUCCESS;
 164:.\source\rte/sc_speed.h **** 
 165:.\source\rte/sc_speed.h ****    //Set value and raw value
 166:.\source\rte/sc_speed.h ****    signal->value  = SC_SPEED_INIT_DATA;
 167:.\source\rte/sc_speed.h ****    signal->age    = 0;
 168:.\source\rte/sc_speed.h ****    signal->status = RTE_SIGNALSTATUS_INITIALIZED;
 169:.\source\rte/sc_speed.h **** 
 170:.\source\rte/sc_speed.h ****    return ret;
 171:.\source\rte/sc_speed.h **** }
 172:.\source\rte/sc_speed.h **** 
 173:.\source\rte/sc_speed.h **** /**************************************************************************************************
 174:.\source\rte/sc_speed.h **** /* Status and timeout control																						*/
 175:.\source\rte/sc_speed.h **** /**************************************************************************************************
 176:.\source\rte/sc_speed.h **** 
 177:.\source\rte/sc_speed.h **** /**
 178:.\source\rte/sc_speed.h ****  *  Returns the current signal status of the passed signal instance.
 179:.\source\rte/sc_speed.h ****  *
 180:.\source\rte/sc_speed.h ****  * @param  SC_SPEED_t * const signal: Pointer to the signal object
 181:.\source\rte/sc_speed.h ****  * @return  sig_status_t: The current signal status
 182:.\source\rte/sc_speed.h ****  *
 183:.\source\rte/sc_speed.h ****  **/
 184:.\source\rte/sc_speed.h **** inline RTE_signalStatus_t RTE_SC_SPEED_getStatus( const SC_SPEED_t * const signal )
 185:.\source\rte/sc_speed.h **** {
 186:.\source\rte/sc_speed.h ****    return signal->status;
 187:.\source\rte/sc_speed.h **** }
 188:.\source\rte/sc_speed.h **** 
 189:.\source\rte/sc_speed.h **** 
 190:.\source\rte/sc_speed.h **** /**
 191:.\source\rte/sc_speed.h ****  *  Sets a new signal status of the passed signal instance by passing the new status.
 192:.\source\rte/sc_speed.h ****  *
 193:.\source\rte/sc_speed.h ****  * @param  SC_SPEED_t * const signal: Pointer to the signal object
 194:.\source\rte/sc_speed.h ****  * @param  const sig_status_t status: New signal status
 195:.\source\rte/sc_speed.h ****  * @return RC_t: standard return code, currently only RC_SUCCESS
 196:.\source\rte/sc_speed.h ****  *
 197:.\source\rte/sc_speed.h ****  */
 198:.\source\rte/sc_speed.h **** inline RC_t RTE_SC_SPEED_setStatus( SC_SPEED_t * const signal, const RTE_signalStatus_t status )
 199:.\source\rte/sc_speed.h **** {
 200:.\source\rte/sc_speed.h ****    signal->status = status;
 201:.\source\rte/sc_speed.h ****    size_t taskNum=0;
 202:.\source\rte/sc_speed.h ****    
 203:.\source\rte/sc_speed.h ****    //Fire error events in case of invalid state
 204:.\source\rte/sc_speed.h ****    if (signal->status == RTE_SIGNALSTATUS_INVALID)
 205:.\source\rte/sc_speed.h ****    {
 206:.\source\rte/sc_speed.h **** 	    //Pointer to the Taskarray, containing the tasks receiving the onUpdate events
 207:.\source\rte/sc_speed.h **** 		TaskTypeArray* pTaskArray = signal->pSigCfg->onErrorTasks;
 208:.\source\rte/sc_speed.h **** 
 209:.\source\rte/sc_speed.h **** 		if (0 != signal->pSigCfg->evOnError && NULL != pTaskArray){
 210:.\source\rte/sc_speed.h **** 			for( taskNum=0 ; taskNum < signal->pSigCfg->onErrorTaskCount ;taskNum++){
 211:.\source\rte/sc_speed.h **** 				TaskType task = (*pTaskArray)[taskNum];
 212:.\source\rte/sc_speed.h **** 				SetEvent( task, signal->pSigCfg->evOnError);
 213:.\source\rte/sc_speed.h **** 			}
 214:.\source\rte/sc_speed.h **** 		}
 215:.\source\rte/sc_speed.h ****    }
 216:.\source\rte/sc_speed.h ****    
 217:.\source\rte/sc_speed.h ****    return RC_SUCCESS;
ARM GAS  C:\Users\bolob\AppData\Local\Temp\ccEVpAIz.s 			page 12


 218:.\source\rte/sc_speed.h **** }
 219:.\source\rte/sc_speed.h **** 
 220:.\source\rte/sc_speed.h **** 
 221:.\source\rte/sc_speed.h **** /**
 222:.\source\rte/sc_speed.h ****  * Returns the count of refreshing trials (refresh, set or set_raw) that failed.
 223:.\source\rte/sc_speed.h ****  * Prerquisite: The signal is refreshed cyclically
 224:.\source\rte/sc_speed.h ****  *
 225:.\source\rte/sc_speed.h ****  * @param  SC_SPEED_t * const signal: Pointer to the signal object
 226:.\source\rte/sc_speed.h ****  * @return uint32_t: Number of cycles since the signal has been updated for the last time
 227:.\source\rte/sc_speed.h ****  */
 228:.\source\rte/sc_speed.h **** inline uint32_t RTE_SC_SPEED_getAge( const SC_SPEED_t * const signal )
 229:.\source\rte/sc_speed.h **** {
 230:.\source\rte/sc_speed.h ****    return signal->age;
 231:.\source\rte/sc_speed.h **** }
 232:.\source\rte/sc_speed.h **** 
 233:.\source\rte/sc_speed.h **** /**
 234:.\source\rte/sc_speed.h ****  * Should be called by application or driver if no new value can be provided.
 235:.\source\rte/sc_speed.h ****  * @param  SC_SPEED_t * const signal: Pointer to the signal object
 236:.\source\rte/sc_speed.h ****  * @param uint32_t increment: incrementvalue, typically in [ms]
 237:.\source\rte/sc_speed.h ****  * @return void
 238:.\source\rte/sc_speed.h ****  */
 239:.\source\rte/sc_speed.h **** inline void RTE_SC_SPEED_incAge(  SC_SPEED_t * const signal , uint32_t increment)
 240:.\source\rte/sc_speed.h **** {
 241:.\source\rte/sc_speed.h **** 	   //Hack....
 242:.\source\rte/sc_speed.h **** 	   if ( 0xFFFF0000 > (signal->age + increment) )
 243:.\source\rte/sc_speed.h **** 	   {
 244:.\source\rte/sc_speed.h **** 	      signal->age += increment;
 245:.\source\rte/sc_speed.h **** 	   }
 246:.\source\rte/sc_speed.h **** }
 247:.\source\rte/sc_speed.h **** 
 248:.\source\rte/sc_speed.h **** 
 249:.\source\rte/sc_speed.h **** /**************************************************************************************************
 250:.\source\rte/sc_speed.h **** /* Application Data read/write Interface																			*/
 251:.\source\rte/sc_speed.h **** /**************************************************************************************************
 252:.\source\rte/sc_speed.h **** 
 253:.\source\rte/sc_speed.h **** /**
 254:.\source\rte/sc_speed.h ****  * Returns the current application value as pointer to the signal payload.
 255:.\source\rte/sc_speed.h ****  * Careful: This is not threadsafe!!!
 256:.\source\rte/sc_speed.h ****  *
 257:.\source\rte/sc_speed.h ****  * @param  SC_SPEED_t * const signal: Pointer to the signal object
 258:.\source\rte/sc_speed.h ****  * @return sc_speed_data_t*: pointer to the current value of the application data buffer
 259:.\source\rte/sc_speed.h ****  *
 260:.\source\rte/sc_speed.h ****  **/
 261:.\source\rte/sc_speed.h **** inline SC_SPEED_data_t* RTE_SC_SPEED_getPtr( SC_SPEED_t * const signal )
 262:.\source\rte/sc_speed.h **** {               
 263:.\source\rte/sc_speed.h ****    //Todo: Critical region cannot be protected using return values																						
 264:.\source\rte/sc_speed.h ****    return &(signal->value);                                                                        
 265:.\source\rte/sc_speed.h **** }
 266:.\source\rte/sc_speed.h **** 
 267:.\source\rte/sc_speed.h **** /**
 268:.\source\rte/sc_speed.h ****  * Returns the current application value of the passed signal instance.
 269:.\source\rte/sc_speed.h ****  *
 270:.\source\rte/sc_speed.h ****  * @param  SC_SPEED_t * const signal: Pointer to the signal object
 271:.\source\rte/sc_speed.h ****  * @return sc_speed_data_t: current value of the application data buffer
 272:.\source\rte/sc_speed.h ****  *
 273:.\source\rte/sc_speed.h ****  **/
 274:.\source\rte/sc_speed.h **** inline SC_SPEED_data_t RTE_SC_SPEED_get( const SC_SPEED_t * const signal )
ARM GAS  C:\Users\bolob\AppData\Local\Temp\ccEVpAIz.s 			page 13


 275:.\source\rte/sc_speed.h **** {               
 276:.\source\rte/sc_speed.h ****    //Todo: Critical region cannot be protected using return values																						
 277:.\source\rte/sc_speed.h ****    return signal->value;                                                                           
 278:.\source\rte/sc_speed.h **** }                                                                                                  
 279:.\source\rte/sc_speed.h ****                                                                                                    
 280:.\source\rte/sc_speed.h **** /**
 281:.\source\rte/sc_speed.h ****  * Returns the current application value of the passed signal instance threadsafe.
 282:.\source\rte/sc_speed.h ****  *
 283:.\source\rte/sc_speed.h ****  * @param  SC_SPEED_t * const signal: Pointer to the signal object
 284:.\source\rte/sc_speed.h ****  * @param  SC_SPEED_data_t* data: Pointer to the return data Pointer to the signal object
 285:.\source\rte/sc_speed.h ****  * @return RC_SUCCESS
 286:.\source\rte/sc_speed.h ****  *
 287:.\source\rte/sc_speed.h ****  **/
 288:.\source\rte/sc_speed.h **** inline RC_t RTE_SC_SPEED_getThreadSafe( const SC_SPEED_t * const signal, SC_SPEED_data_t * const da
 289:.\source\rte/sc_speed.h **** {    
 290:.\source\rte/sc_speed.h ****    if (TRUE == signal->pSigCfg->resourceActive) GetResource(signal->pSigCfg->resource);
 291:.\source\rte/sc_speed.h ****    *data = signal->value;
 292:.\source\rte/sc_speed.h ****    if (TRUE == signal->pSigCfg->resourceActive) ReleaseResource(signal->pSigCfg->resource);        
 293:.\source\rte/sc_speed.h **** 
 294:.\source\rte/sc_speed.h ****    return RC_SUCCESS;                                                                   
 295:.\source\rte/sc_speed.h ****    
 296:.\source\rte/sc_speed.h **** }                                                                                                  
 297:.\source\rte/sc_speed.h ****                                                                                                    
 298:.\source\rte/sc_speed.h **** /**
 299:.\source\rte/sc_speed.h ****  * Sets a new application value to the passed signal instance by passing the new value.
 300:.\source\rte/sc_speed.h ****  * The corresponding driver raw value will be calculated immediately by using the default conversio
 301:.\source\rte/sc_speed.h ****  * signal specific scaling function.
 302:.\source\rte/sc_speed.h ****  * The signal age will be set to 0 and the new status will be 'RTE_SIGNALSTATUS_VALID'.
 303:.\source\rte/sc_speed.h ****  *
 304:.\source\rte/sc_speed.h ****  * @param  SC_SPEED_t * const signal: Pointer to the signal object
 305:.\source\rte/sc_speed.h ****  * @param  sc_speed_data_t const value: value for the application data buffer
 306:.\source\rte/sc_speed.h ****  * @return RC_t: standard return code, currently only RC_SUCCESS
 307:.\source\rte/sc_speed.h ****  *
 308:.\source\rte/sc_speed.h ****  **/
 309:.\source\rte/sc_speed.h **** inline RC_t RTE_SC_SPEED_set(SC_SPEED_t * const signal, const SC_SPEED_data_t value  )
 310:.\source\rte/sc_speed.h **** {
 311:.\source\rte/sc_speed.h **** 
 312:.\source\rte/sc_speed.h ****    RC_t ret = RC_SUCCESS;
 313:.\source\rte/sc_speed.h ****    size_t taskNum=0;
 314:.\source\rte/sc_speed.h **** 
 315:.\source\rte/sc_speed.h **** 
 316:.\source\rte/sc_speed.h ****    if (TRUE == signal->pSigCfg->resourceActive) GetResource(signal->pSigCfg->resource);
  72              		.loc 3 316 0
  73 0026 0E4A     		ldr	r2, .L9+4
  74 0028 9168     		ldr	r1, [r2, #8]
  75              	.LVL6:
 317:.\source\rte/sc_speed.h ****    signal->value  = value;
  76              		.loc 3 317 0
  77 002a 1370     		strb	r3, [r2]
 318:.\source\rte/sc_speed.h ****    signal->age    = 0;
  78              		.loc 3 318 0
  79 002c 0023     		movs	r3, #0
  80              	.LVL7:
  81 002e 5360     		str	r3, [r2, #4]
 319:.\source\rte/sc_speed.h ****    signal->status = RTE_SIGNALSTATUS_VALID;
  82              		.loc 3 319 0
  83 0030 0223     		movs	r3, #2
ARM GAS  C:\Users\bolob\AppData\Local\Temp\ccEVpAIz.s 			page 14


  84 0032 5370     		strb	r3, [r2, #1]
 320:.\source\rte/sc_speed.h ****    if (TRUE == signal->pSigCfg->resourceActive) ReleaseResource(signal->pSigCfg->resource);
 321:.\source\rte/sc_speed.h **** 
 322:.\source\rte/sc_speed.h ****    //Pointer to the Taskarray, containing the tasks receiving the onUpdate events
 323:.\source\rte/sc_speed.h ****    TaskTypeArray* pTaskArray = signal->pSigCfg->onUpdateTasks;
  85              		.loc 3 323 0
  86 0034 4D69     		ldr	r5, [r1, #20]
  87              	.LVL8:
 324:.\source\rte/sc_speed.h **** 
 325:.\source\rte/sc_speed.h ****    if (0 != signal->pSigCfg->evOnUpdate && NULL != pTaskArray){
  88              		.loc 3 325 0
  89 0036 8B68     		ldr	r3, [r1, #8]
  90 0038 73B1     		cbz	r3, .L1
  91 003a 3DB9     		cbnz	r5, .L7
  92 003c 0CE0     		b	.L1
  93              	.LVL9:
  94              	.L6:
  95              	.LBB11:
 326:.\source\rte/sc_speed.h ****       for( taskNum=0 ; taskNum < signal->pSigCfg->onUpdateTaskCount ;taskNum++){
 327:.\source\rte/sc_speed.h **** 		  
 328:.\source\rte/sc_speed.h ****           TaskType task = (*pTaskArray)[taskNum];
 329:.\source\rte/sc_speed.h **** 	      SetEvent( task, signal->pSigCfg->evOnUpdate);
  96              		.loc 3 329 0
  97 003e 9968     		ldr	r1, [r3, #8]
  98 0040 55F82400 		ldr	r0, [r5, r4, lsl #2]
  99 0044 FFF7FEFF 		bl	EE_oo_SetEvent
 100              	.LVL10:
 101              	.LBE11:
 326:.\source\rte/sc_speed.h ****       for( taskNum=0 ; taskNum < signal->pSigCfg->onUpdateTaskCount ;taskNum++){
 102              		.loc 3 326 0
 103 0048 0134     		adds	r4, r4, #1
 104              	.LVL11:
 105 004a 00E0     		b	.L5
 106              	.LVL12:
 107              	.L7:
 325:.\source\rte/sc_speed.h ****       for( taskNum=0 ; taskNum < signal->pSigCfg->onUpdateTaskCount ;taskNum++){
 108              		.loc 3 325 0
 109 004c 0024     		movs	r4, #0
 110              	.LVL13:
 111              	.L5:
 326:.\source\rte/sc_speed.h ****       for( taskNum=0 ; taskNum < signal->pSigCfg->onUpdateTaskCount ;taskNum++){
 112              		.loc 3 326 0
 113 004e 044B     		ldr	r3, .L9+4
 114 0050 9B68     		ldr	r3, [r3, #8]
 115 0052 1A69     		ldr	r2, [r3, #16]
 116 0054 9442     		cmp	r4, r2
 117 0056 F2D3     		bcc	.L6
 118              	.LVL14:
 119              	.L1:
 120              	.LBE10:
 121              	.LBE9:
  63:source\asw/swc_control.c ****     }
  64:source\asw/swc_control.c ****     
  65:source\asw/swc_control.c ****     // Update the speed signal
  66:source\asw/swc_control.c ****     RTE_SC_SPEED_set(&SO_SPEED_signal, speedData);
  67:source\asw/swc_control.c **** 
  68:source\asw/swc_control.c ****     /* USER CODE END CONTROL_calcControl_run */
ARM GAS  C:\Users\bolob\AppData\Local\Temp\ccEVpAIz.s 			page 15


  69:source\asw/swc_control.c **** }
 122              		.loc 1 69 0
 123 0058 03B0     		add	sp, sp, #12
 124              		.cfi_def_cfa_offset 12
 125              		@ sp needed
 126 005a 30BD     		pop	{r4, r5, pc}
 127              	.LVL15:
 128              	.L10:
 129              		.align	2
 130              	.L9:
 131 005c 00000000 		.word	SO_JOYSTICK_signal
 132 0060 00000000 		.word	SO_SPEED_signal
 133              		.cfi_endproc
 134              	.LFE143:
 135              		.size	CONTROL_calcControl_run, .-CONTROL_calcControl_run
 136              		.text
 137              	.Letext0:
 138              		.file 4 "c:\\program files (x86)\\cypress\\psoc creator\\4.4\\psoc creator\\import\\gnu\\arm\\5.4.
 139              		.file 5 "c:\\program files (x86)\\cypress\\psoc creator\\4.4\\psoc creator\\import\\gnu\\arm\\5.4.
 140              		.file 6 "c:\\program files (x86)\\cypress\\psoc creator\\4.4\\psoc creator\\import\\gnu\\arm\\5.4.
 141              		.file 7 "Generated_Source\\PSoC5/ErikaOS_1_common_ee_types.inc"
 142              		.file 8 "Generated_Source\\PSoC5/ErikaOS_1_cortex_mx_ee_cpu.inc"
 143              		.file 9 "Generated_Source\\PSoC5/ErikaOS_1_ee_oo_common.inc"
 144              		.file 10 ".\\source\\bsw/global.h"
 145              		.file 11 ".\\source\\rte/rte_types.h"
 146              		.file 12 ".\\source\\rte/rte.h"
 147              		.file 13 ".\\source\\rte/sc_joystick_type.h"
 148              		.file 14 ".\\source\\rte/sc_speed_type.h"
 149              		.file 15 "Generated_Source\\PSoC5/ErikaOS_1_ee_oo_intfunc.inc"
 150              		.file 16 "Generated_Source\\PSoC5/ErikaOS_1_cortex_mx_ee_context.inc"
 151              		.file 17 "Generated_Source\\PSoC5/ErikaOS_1_common_ee_primitives.inc"
 152              		.file 18 "Generated_Source\\PSoC5/core_cm3.h"
 153              		.file 19 ".\\source\\rte/sp_common.h"
 154              		.file 20 "Generated_Source\\PSoC5/ErikaOS_1_ee_oo_kernel.inc"
 155              		.file 21 "./watchdog.h"