ARM GAS  C:\Users\bolob\AppData\Local\Temp\ccgDU2SJ.s 			page 1


   1              		.syntax unified
   2              		.cpu cortex-m3
   3              		.fpu softvfp
   4              		.eabi_attribute 20, 1
   5              		.eabi_attribute 21, 1
   6              		.eabi_attribute 23, 3
   7              		.eabi_attribute 24, 1
   8              		.eabi_attribute 25, 1
   9              		.eabi_attribute 26, 1
  10              		.eabi_attribute 30, 1
  11              		.eabi_attribute 34, 1
  12              		.eabi_attribute 18, 4
  13              		.thumb
  14              		.syntax unified
  15              		.file	"swc_output.c"
  16              		.text
  17              	.Ltext0:
  18              		.cfi_sections	.debug_frame
  19              		.section	.text.OUTPUT_setEngine_run,"ax",%progbits
  20              		.align	2
  21              		.global	OUTPUT_setEngine_run
  22              		.thumb
  23              		.thumb_func
  24              		.type	OUTPUT_setEngine_run, %function
  25              	OUTPUT_setEngine_run:
  26              	.LFB143:
  27              		.file 1 "source\\asw\\swc_output.c"
   1:source\asw/swc_output.c **** /*
   2:source\asw/swc_output.c ****  * Filename: swc_output.c
   3:source\asw/swc_output.c ****  *
   4:source\asw/swc_output.c ****  * Author: Autogenerated by H-DA RTE Generator, (c) Prof. Fromm
   5:source\asw/swc_output.c ****  *
   6:source\asw/swc_output.c ****  * description: Sets the specific output values
   7:source\asw/swc_output.c ****  * name: swc_output
   8:source\asw/swc_output.c ****  * shortname: output
   9:source\asw/swc_output.c ****  *
  10:source\asw/swc_output.c ****  */
  11:source\asw/swc_output.c **** 
  12:source\asw/swc_output.c **** #include "project.h"
  13:source\asw/swc_output.c **** #include "global.h"
  14:source\asw/swc_output.c **** #include "rte.h"
  15:source\asw/swc_output.c **** #include "rte_types.h"
  16:source\asw/swc_output.c **** #include "swc_output.h"
  17:source\asw/swc_output.c **** 
  18:source\asw/swc_output.c **** 
  19:source\asw/swc_output.c **** 
  20:source\asw/swc_output.c **** /* USER CODE START SWC_OUTPUT_INCLUDE */
  21:source\asw/swc_output.c **** 
  22:source\asw/swc_output.c **** /* USER CODE END SWC_OUTPUT_INCLUDE */
  23:source\asw/swc_output.c **** 
  24:source\asw/swc_output.c **** 
  25:source\asw/swc_output.c **** #include "sp_common.h"
  26:source\asw/swc_output.c **** 
  27:source\asw/swc_output.c **** /* USER CODE START SWC_OUTPUT_USERDEFINITIONS */
  28:source\asw/swc_output.c **** 
  29:source\asw/swc_output.c **** /* USER CODE END SWC_OUTPUT_USERDEFINITIONS */
  30:source\asw/swc_output.c **** 
ARM GAS  C:\Users\bolob\AppData\Local\Temp\ccgDU2SJ.s 			page 2


  31:source\asw/swc_output.c **** 
  32:source\asw/swc_output.c **** 
  33:source\asw/swc_output.c **** /*
  34:source\asw/swc_output.c ****  * component: swc_output
  35:source\asw/swc_output.c ****  * cycletime: 100
  36:source\asw/swc_output.c ****  * description: Copies the speed signal to the engine signal and calls the driver.
  37:source\asw/swc_output.c ****  * events: 
  38:source\asw/swc_output.c ****  * name: OUTPUT_setEngine_run
  39:source\asw/swc_output.c ****  * shortname: setEngine
  40:source\asw/swc_output.c ****  * signalIN: so_speed
  41:source\asw/swc_output.c ****  * signalOUT: 
  42:source\asw/swc_output.c ****  * task: tsk_io
  43:source\asw/swc_output.c ****  */
  44:source\asw/swc_output.c **** void OUTPUT_setEngine_run(RTE_event ev){
  28              		.loc 1 44 0
  29              		.cfi_startproc
  30              		@ args = 0, pretend = 0, frame = 16
  31              		@ frame_needed = 0, uses_anonymous_args = 0
  32              	.LVL0:
  33 0000 30B5     		push	{r4, r5, lr}
  34              		.cfi_def_cfa_offset 12
  35              		.cfi_offset 4, -12
  36              		.cfi_offset 5, -8
  37              		.cfi_offset 14, -4
  38 0002 85B0     		sub	sp, sp, #20
  39              		.cfi_def_cfa_offset 32
  45:source\asw/swc_output.c **** 	
  46:source\asw/swc_output.c **** 	/* USER CODE START OUTPUT_setEngine_run */
  47:source\asw/swc_output.c ****     
  48:source\asw/swc_output.c ****     // Notify that the tak has been called
  49:source\asw/swc_output.c ****     WD_Alive(WDT_MASK_RUN_SETENGINE);
  40              		.loc 1 49 0
  41 0004 0420     		movs	r0, #4
  42              	.LVL1:
  43 0006 FFF7FEFF 		bl	WD_Alive
  44              	.LVL2:
  45              	.LBB22:
  46              	.LBB23:
  47              		.file 2 ".\\source\\rte/sc_led.h"
   1:.\source\rte/sc_led.h **** 
   2:.\source\rte/sc_led.h **** 
   3:.\source\rte/sc_led.h **** /**
   4:.\source\rte/sc_led.h ****  *  file    SC_LED_signal.h
   5:.\source\rte/sc_led.h ****  *
   6:.\source\rte/sc_led.h ****  *  brief   signal base class for signal sc_led
   7:.\source\rte/sc_led.h ****  *
   8:.\source\rte/sc_led.h ****  *  author  Autogenerated, Peter Fromm       <peter.fromm@h-da.de>
   9:.\source\rte/sc_led.h ****  *
  10:.\source\rte/sc_led.h ****  * description: Signalclass
  11:.\source\rte/sc_led.h ****  * name: sc_led
  12:.\source\rte/sc_led.h ****  * shortname: led
  13:.\source\rte/sc_led.h ****  *
  14:.\source\rte/sc_led.h ****  */
  15:.\source\rte/sc_led.h **** 
  16:.\source\rte/sc_led.h **** 
  17:.\source\rte/sc_led.h **** 
  18:.\source\rte/sc_led.h **** #ifndef SC_LED_SIGNAL_H_INCLUDED
ARM GAS  C:\Users\bolob\AppData\Local\Temp\ccgDU2SJ.s 			page 3


  19:.\source\rte/sc_led.h **** #define SC_LED_SIGNAL_H_INCLUDED
  20:.\source\rte/sc_led.h **** 
  21:.\source\rte/sc_led.h **** /*================================================[ public includes  ]=============================
  22:.\source\rte/sc_led.h **** #include "global.h"
  23:.\source\rte/sc_led.h **** #include "project.h"
  24:.\source\rte/sc_led.h **** #include "rte.h"
  25:.\source\rte/sc_led.h **** #include "rte_types.h"
  26:.\source\rte/sc_led.h **** 
  27:.\source\rte/sc_led.h **** #include "sc_led_type.h"
  28:.\source\rte/sc_led.h **** 
  29:.\source\rte/sc_led.h **** 
  30:.\source\rte/sc_led.h **** /**************************************************************************************************
  31:.\source\rte/sc_led.h **** /* The driver API block																						*/
  32:.\source\rte/sc_led.h **** /**************************************************************************************************
  33:.\source\rte/sc_led.h ****                                                                                                    
  34:.\source\rte/sc_led.h **** /**
  35:.\source\rte/sc_led.h ****  *  Definition of function types for driver interfaces.
  36:.\source\rte/sc_led.h ****  *  I-Port
  37:.\source\rte/sc_led.h ****  */
  38:.\source\rte/sc_led.h **** typedef RC_t (*SC_LED_driverIn_t)(SC_LED_data_t * const);
  39:.\source\rte/sc_led.h **** 
  40:.\source\rte/sc_led.h **** /**
  41:.\source\rte/sc_led.h ****  *  Definition of function types for driver interfaces.
  42:.\source\rte/sc_led.h ****  *  O-Port
  43:.\source\rte/sc_led.h ****  */
  44:.\source\rte/sc_led.h **** typedef RC_t (*SC_LED_driverOut_t)( const SC_LED_data_t * const);
  45:.\source\rte/sc_led.h **** 
  46:.\source\rte/sc_led.h **** 
  47:.\source\rte/sc_led.h **** /**************************************************************************************************
  48:.\source\rte/sc_led.h **** /* The signal configuration API block																				*/
  49:.\source\rte/sc_led.h **** /**************************************************************************************************
  50:.\source\rte/sc_led.h **** 
  51:.\source\rte/sc_led.h **** /**
  52:.\source\rte/sc_led.h ****  * Instances of the struct SC_LED_cfg_t represent the signal object configuration.
  53:.\source\rte/sc_led.h ****  */
  54:.\source\rte/sc_led.h **** struct SC_LED_cfg_s
  55:.\source\rte/sc_led.h **** {
  56:.\source\rte/sc_led.h ****     /**
  57:.\source\rte/sc_led.h ****      * Function pointer to the input driver
  58:.\source\rte/sc_led.h ****      */
  59:.\source\rte/sc_led.h ****     SC_LED_driverIn_t const inDriver;
  60:.\source\rte/sc_led.h **** 
  61:.\source\rte/sc_led.h ****     /**
  62:.\source\rte/sc_led.h ****      * Function pointer to the output driver table
  63:.\source\rte/sc_led.h ****      */
  64:.\source\rte/sc_led.h ****    SC_LED_driverOut_t const outDriver;
  65:.\source\rte/sc_led.h ****    
  66:.\source\rte/sc_led.h ****     /**
  67:.\source\rte/sc_led.h ****      * Event onUpdate
  68:.\source\rte/sc_led.h ****      */
  69:.\source\rte/sc_led.h ****     EventMaskType const evOnUpdate;
  70:.\source\rte/sc_led.h ****     
  71:.\source\rte/sc_led.h ****     
  72:.\source\rte/sc_led.h ****     /**
  73:.\source\rte/sc_led.h ****      * Event onError
  74:.\source\rte/sc_led.h ****      */
  75:.\source\rte/sc_led.h ****     EventMaskType const evOnError;
ARM GAS  C:\Users\bolob\AppData\Local\Temp\ccgDU2SJ.s 			page 4


  76:.\source\rte/sc_led.h ****     
  77:.\source\rte/sc_led.h ****     /**
  78:.\source\rte/sc_led.h ****      * Task Count onUpdate
  79:.\source\rte/sc_led.h ****      */
  80:.\source\rte/sc_led.h ****     size_t const onUpdateTaskCount;
  81:.\source\rte/sc_led.h **** 
  82:.\source\rte/sc_led.h ****     /**
  83:.\source\rte/sc_led.h ****      * Task List onUpdate
  84:.\source\rte/sc_led.h ****      */
  85:.\source\rte/sc_led.h ****     TaskTypeArray* const onUpdateTasks;
  86:.\source\rte/sc_led.h ****     
  87:.\source\rte/sc_led.h ****     /**
  88:.\source\rte/sc_led.h ****      * Task Count onError
  89:.\source\rte/sc_led.h ****      */
  90:.\source\rte/sc_led.h ****     size_t const onErrorTaskCount;
  91:.\source\rte/sc_led.h **** 
  92:.\source\rte/sc_led.h ****     /**
  93:.\source\rte/sc_led.h ****      * Task List onError
  94:.\source\rte/sc_led.h ****      */
  95:.\source\rte/sc_led.h ****     TaskTypeArray* const onErrorTasks;
  96:.\source\rte/sc_led.h **** 	
  97:.\source\rte/sc_led.h **** 	
  98:.\source\rte/sc_led.h **** 	/**
  99:.\source\rte/sc_led.h **** 	 * Ressourse is active? We need an additional boolean as a ressource value 0 is valid.
 100:.\source\rte/sc_led.h **** 	 */
 101:.\source\rte/sc_led.h **** 	 boolean_t const resourceActive;
 102:.\source\rte/sc_led.h **** 	 
 103:.\source\rte/sc_led.h **** 	/**
 104:.\source\rte/sc_led.h **** 	 * Ressourse 
 105:.\source\rte/sc_led.h **** 	 */
 106:.\source\rte/sc_led.h **** 	 ResourceType const resource;
 107:.\source\rte/sc_led.h **** 
 108:.\source\rte/sc_led.h **** };                                                                                                 
 109:.\source\rte/sc_led.h **** typedef const struct SC_LED_cfg_s SC_LED_cfg_t;
 110:.\source\rte/sc_led.h ****                               
 111:.\source\rte/sc_led.h **** /**************************************************************************************************
 112:.\source\rte/sc_led.h **** /* The data interface block																							*/
 113:.\source\rte/sc_led.h **** /**************************************************************************************************
 114:.\source\rte/sc_led.h **** 
 115:.\source\rte/sc_led.h ****                                                                                                    
 116:.\source\rte/sc_led.h **** 							  
 117:.\source\rte/sc_led.h **** /**
 118:.\source\rte/sc_led.h ****  * Instances of the struct SC_LED_t represent the signal objects.
 119:.\source\rte/sc_led.h ****  * A signal object contains the current application value 'value' as well as relevant meta data.
 120:.\source\rte/sc_led.h ****  */
 121:.\source\rte/sc_led.h **** struct SC_LED_s
 122:.\source\rte/sc_led.h **** {                                                                                                  
 123:.\source\rte/sc_led.h **** 
 124:.\source\rte/sc_led.h **** 	/**
 125:.\source\rte/sc_led.h **** 	 * Data buffer for the application value
 126:.\source\rte/sc_led.h **** 	 */
 127:.\source\rte/sc_led.h ****     SC_LED_data_t value;
 128:.\source\rte/sc_led.h **** 
 129:.\source\rte/sc_led.h ****     /**
 130:.\source\rte/sc_led.h ****      * Current signal status
 131:.\source\rte/sc_led.h ****      */
 132:.\source\rte/sc_led.h ****     RTE_signalStatus_t status;
ARM GAS  C:\Users\bolob\AppData\Local\Temp\ccgDU2SJ.s 			page 5


 133:.\source\rte/sc_led.h **** 
 134:.\source\rte/sc_led.h ****     /**
 135:.\source\rte/sc_led.h ****      * Current age of the signal (in calling cycles)
 136:.\source\rte/sc_led.h ****      */
 137:.\source\rte/sc_led.h ****     uint32_t age;
 138:.\source\rte/sc_led.h **** 
 139:.\source\rte/sc_led.h ****     /**
 140:.\source\rte/sc_led.h ****      * Pointer to the signal configuration
 141:.\source\rte/sc_led.h ****      */
 142:.\source\rte/sc_led.h **** 	const SC_LED_cfg_t * const    pSigCfg;
 143:.\source\rte/sc_led.h **** 
 144:.\source\rte/sc_led.h **** };                                                                                                 
 145:.\source\rte/sc_led.h **** typedef struct SC_LED_s SC_LED_t;
 146:.\source\rte/sc_led.h **** 
 147:.\source\rte/sc_led.h **** /**************************************************************************************************
 148:.\source\rte/sc_led.h **** /* Signal initialisation   																							*/
 149:.\source\rte/sc_led.h **** /**************************************************************************************************
 150:.\source\rte/sc_led.h **** 
 151:.\source\rte/sc_led.h **** /**
 152:.\source\rte/sc_led.h ****  * Initializes a signal instance with a passed init value.
 153:.\source\rte/sc_led.h ****  * Depending on the configured conversion or scaling function the raw_value will be calculated.
 154:.\source\rte/sc_led.h ****  * Signal status will change from RTE_SIGNALSTATUS_STARTUP to RTE_SIGNALSTATUS_INITIALIZED.
 155:.\source\rte/sc_led.h ****  *
 156:.\source\rte/sc_led.h ****  * @param  SC_LED_t * const signal: Pointer to the signal object which will be initialised
 157:.\source\rte/sc_led.h ****  * @return RC_t: standard return code, currently only RC_SUCCESS
 158:.\source\rte/sc_led.h ****  *
 159:.\source\rte/sc_led.h ****  **/
 160:.\source\rte/sc_led.h **** inline RC_t RTE_SC_LED_init( SC_LED_t * const signal )
 161:.\source\rte/sc_led.h **** {                                                                                                  
 162:.\source\rte/sc_led.h **** 
 163:.\source\rte/sc_led.h ****    RC_t ret = RC_SUCCESS;
 164:.\source\rte/sc_led.h **** 
 165:.\source\rte/sc_led.h ****    //Set value and raw value
 166:.\source\rte/sc_led.h ****    signal->value  = SC_LED_INIT_DATA;
 167:.\source\rte/sc_led.h ****    signal->age    = 0;
 168:.\source\rte/sc_led.h ****    signal->status = RTE_SIGNALSTATUS_INITIALIZED;
 169:.\source\rte/sc_led.h **** 
 170:.\source\rte/sc_led.h ****    return ret;
 171:.\source\rte/sc_led.h **** }
 172:.\source\rte/sc_led.h **** 
 173:.\source\rte/sc_led.h **** /**************************************************************************************************
 174:.\source\rte/sc_led.h **** /* Status and timeout control																						*/
 175:.\source\rte/sc_led.h **** /**************************************************************************************************
 176:.\source\rte/sc_led.h **** 
 177:.\source\rte/sc_led.h **** /**
 178:.\source\rte/sc_led.h ****  *  Returns the current signal status of the passed signal instance.
 179:.\source\rte/sc_led.h ****  *
 180:.\source\rte/sc_led.h ****  * @param  SC_LED_t * const signal: Pointer to the signal object
 181:.\source\rte/sc_led.h ****  * @return  sig_status_t: The current signal status
 182:.\source\rte/sc_led.h ****  *
 183:.\source\rte/sc_led.h ****  **/
 184:.\source\rte/sc_led.h **** inline RTE_signalStatus_t RTE_SC_LED_getStatus( const SC_LED_t * const signal )
 185:.\source\rte/sc_led.h **** {
 186:.\source\rte/sc_led.h ****    return signal->status;
 187:.\source\rte/sc_led.h **** }
 188:.\source\rte/sc_led.h **** 
 189:.\source\rte/sc_led.h **** 
ARM GAS  C:\Users\bolob\AppData\Local\Temp\ccgDU2SJ.s 			page 6


 190:.\source\rte/sc_led.h **** /**
 191:.\source\rte/sc_led.h ****  *  Sets a new signal status of the passed signal instance by passing the new status.
 192:.\source\rte/sc_led.h ****  *
 193:.\source\rte/sc_led.h ****  * @param  SC_LED_t * const signal: Pointer to the signal object
 194:.\source\rte/sc_led.h ****  * @param  const sig_status_t status: New signal status
 195:.\source\rte/sc_led.h ****  * @return RC_t: standard return code, currently only RC_SUCCESS
 196:.\source\rte/sc_led.h ****  *
 197:.\source\rte/sc_led.h ****  */
 198:.\source\rte/sc_led.h **** inline RC_t RTE_SC_LED_setStatus( SC_LED_t * const signal, const RTE_signalStatus_t status )
 199:.\source\rte/sc_led.h **** {
 200:.\source\rte/sc_led.h ****    signal->status = status;
 201:.\source\rte/sc_led.h ****    size_t taskNum=0;
 202:.\source\rte/sc_led.h ****    
 203:.\source\rte/sc_led.h ****    //Fire error events in case of invalid state
 204:.\source\rte/sc_led.h ****    if (signal->status == RTE_SIGNALSTATUS_INVALID)
 205:.\source\rte/sc_led.h ****    {
 206:.\source\rte/sc_led.h **** 	    //Pointer to the Taskarray, containing the tasks receiving the onUpdate events
 207:.\source\rte/sc_led.h **** 		TaskTypeArray* pTaskArray = signal->pSigCfg->onErrorTasks;
 208:.\source\rte/sc_led.h **** 
 209:.\source\rte/sc_led.h **** 		if (0 != signal->pSigCfg->evOnError && NULL != pTaskArray){
 210:.\source\rte/sc_led.h **** 			for( taskNum=0 ; taskNum < signal->pSigCfg->onErrorTaskCount ;taskNum++){
 211:.\source\rte/sc_led.h **** 				TaskType task = (*pTaskArray)[taskNum];
 212:.\source\rte/sc_led.h **** 				SetEvent( task, signal->pSigCfg->evOnError);
 213:.\source\rte/sc_led.h **** 			}
 214:.\source\rte/sc_led.h **** 		}
 215:.\source\rte/sc_led.h ****    }
 216:.\source\rte/sc_led.h ****    
 217:.\source\rte/sc_led.h ****    return RC_SUCCESS;
 218:.\source\rte/sc_led.h **** }
 219:.\source\rte/sc_led.h **** 
 220:.\source\rte/sc_led.h **** 
 221:.\source\rte/sc_led.h **** /**
 222:.\source\rte/sc_led.h ****  * Returns the count of refreshing trials (refresh, set or set_raw) that failed.
 223:.\source\rte/sc_led.h ****  * Prerquisite: The signal is refreshed cyclically
 224:.\source\rte/sc_led.h ****  *
 225:.\source\rte/sc_led.h ****  * @param  SC_LED_t * const signal: Pointer to the signal object
 226:.\source\rte/sc_led.h ****  * @return uint32_t: Number of cycles since the signal has been updated for the last time
 227:.\source\rte/sc_led.h ****  */
 228:.\source\rte/sc_led.h **** inline uint32_t RTE_SC_LED_getAge( const SC_LED_t * const signal )
 229:.\source\rte/sc_led.h **** {
 230:.\source\rte/sc_led.h ****    return signal->age;
 231:.\source\rte/sc_led.h **** }
 232:.\source\rte/sc_led.h **** 
 233:.\source\rte/sc_led.h **** /**
 234:.\source\rte/sc_led.h ****  * Should be called by application or driver if no new value can be provided.
 235:.\source\rte/sc_led.h ****  * @param  SC_LED_t * const signal: Pointer to the signal object
 236:.\source\rte/sc_led.h ****  * @param uint32_t increment: incrementvalue, typically in [ms]
 237:.\source\rte/sc_led.h ****  * @return void
 238:.\source\rte/sc_led.h ****  */
 239:.\source\rte/sc_led.h **** inline void RTE_SC_LED_incAge(  SC_LED_t * const signal , uint32_t increment)
 240:.\source\rte/sc_led.h **** {
 241:.\source\rte/sc_led.h **** 	   //Hack....
 242:.\source\rte/sc_led.h **** 	   if ( 0xFFFF0000 > (signal->age + increment) )
 243:.\source\rte/sc_led.h **** 	   {
 244:.\source\rte/sc_led.h **** 	      signal->age += increment;
 245:.\source\rte/sc_led.h **** 	   }
 246:.\source\rte/sc_led.h **** }
ARM GAS  C:\Users\bolob\AppData\Local\Temp\ccgDU2SJ.s 			page 7


 247:.\source\rte/sc_led.h **** 
 248:.\source\rte/sc_led.h **** 
 249:.\source\rte/sc_led.h **** /**************************************************************************************************
 250:.\source\rte/sc_led.h **** /* Application Data read/write Interface																			*/
 251:.\source\rte/sc_led.h **** /**************************************************************************************************
 252:.\source\rte/sc_led.h **** 
 253:.\source\rte/sc_led.h **** /**
 254:.\source\rte/sc_led.h ****  * Returns the current application value as pointer to the signal payload.
 255:.\source\rte/sc_led.h ****  * Careful: This is not threadsafe!!!
 256:.\source\rte/sc_led.h ****  *
 257:.\source\rte/sc_led.h ****  * @param  SC_LED_t * const signal: Pointer to the signal object
 258:.\source\rte/sc_led.h ****  * @return sc_led_data_t*: pointer to the current value of the application data buffer
 259:.\source\rte/sc_led.h ****  *
 260:.\source\rte/sc_led.h ****  **/
 261:.\source\rte/sc_led.h **** inline SC_LED_data_t* RTE_SC_LED_getPtr( SC_LED_t * const signal )
 262:.\source\rte/sc_led.h **** {               
 263:.\source\rte/sc_led.h ****    //Todo: Critical region cannot be protected using return values																						
 264:.\source\rte/sc_led.h ****    return &(signal->value);                                                                        
 265:.\source\rte/sc_led.h **** }
 266:.\source\rte/sc_led.h **** 
 267:.\source\rte/sc_led.h **** /**
 268:.\source\rte/sc_led.h ****  * Returns the current application value of the passed signal instance.
 269:.\source\rte/sc_led.h ****  *
 270:.\source\rte/sc_led.h ****  * @param  SC_LED_t * const signal: Pointer to the signal object
 271:.\source\rte/sc_led.h ****  * @return sc_led_data_t: current value of the application data buffer
 272:.\source\rte/sc_led.h ****  *
 273:.\source\rte/sc_led.h ****  **/
 274:.\source\rte/sc_led.h **** inline SC_LED_data_t RTE_SC_LED_get( const SC_LED_t * const signal )
 275:.\source\rte/sc_led.h **** {               
 276:.\source\rte/sc_led.h ****    //Todo: Critical region cannot be protected using return values																						
 277:.\source\rte/sc_led.h ****    return signal->value;                                                                           
  48              		.loc 2 277 0
  49 000a 1C4B     		ldr	r3, .L10
  50 000c 1B88     		ldrh	r3, [r3]
  51 000e ADF80C30 		strh	r3, [sp, #12]	@ movhi
  52 0012 ADF80830 		strh	r3, [sp, #8]	@ movhi
  53              	.LVL3:
  54              	.LBE23:
  55              	.LBE22:
  56              	.LBB24:
  57              	.LBB25:
  58              		.file 3 ".\\source\\rte/sc_speed.h"
   1:.\source\rte/sc_speed.h **** 
   2:.\source\rte/sc_speed.h **** 
   3:.\source\rte/sc_speed.h **** /**
   4:.\source\rte/sc_speed.h ****  *  file    SC_SPEED_signal.h
   5:.\source\rte/sc_speed.h ****  *
   6:.\source\rte/sc_speed.h ****  *  brief   signal base class for signal sc_speed
   7:.\source\rte/sc_speed.h ****  *
   8:.\source\rte/sc_speed.h ****  *  author  Autogenerated, Peter Fromm       <peter.fromm@h-da.de>
   9:.\source\rte/sc_speed.h ****  *
  10:.\source\rte/sc_speed.h ****  * description: Any speed data type, e.g. control, target, current
  11:.\source\rte/sc_speed.h ****  * name: sc_speed
  12:.\source\rte/sc_speed.h ****  * shortname: speed
  13:.\source\rte/sc_speed.h ****  *
  14:.\source\rte/sc_speed.h ****  */
  15:.\source\rte/sc_speed.h **** 
ARM GAS  C:\Users\bolob\AppData\Local\Temp\ccgDU2SJ.s 			page 8


  16:.\source\rte/sc_speed.h **** 
  17:.\source\rte/sc_speed.h **** 
  18:.\source\rte/sc_speed.h **** #ifndef SC_SPEED_SIGNAL_H_INCLUDED
  19:.\source\rte/sc_speed.h **** #define SC_SPEED_SIGNAL_H_INCLUDED
  20:.\source\rte/sc_speed.h **** 
  21:.\source\rte/sc_speed.h **** /*================================================[ public includes  ]=============================
  22:.\source\rte/sc_speed.h **** #include "global.h"
  23:.\source\rte/sc_speed.h **** #include "project.h"
  24:.\source\rte/sc_speed.h **** #include "rte.h"
  25:.\source\rte/sc_speed.h **** #include "rte_types.h"
  26:.\source\rte/sc_speed.h **** 
  27:.\source\rte/sc_speed.h **** #include "sc_speed_type.h"
  28:.\source\rte/sc_speed.h **** 
  29:.\source\rte/sc_speed.h **** 
  30:.\source\rte/sc_speed.h **** /**************************************************************************************************
  31:.\source\rte/sc_speed.h **** /* The driver API block																						*/
  32:.\source\rte/sc_speed.h **** /**************************************************************************************************
  33:.\source\rte/sc_speed.h ****                                                                                                    
  34:.\source\rte/sc_speed.h **** /**
  35:.\source\rte/sc_speed.h ****  *  Definition of function types for driver interfaces.
  36:.\source\rte/sc_speed.h ****  *  I-Port
  37:.\source\rte/sc_speed.h ****  */
  38:.\source\rte/sc_speed.h **** typedef RC_t (*SC_SPEED_driverIn_t)(SC_SPEED_data_t * const);
  39:.\source\rte/sc_speed.h **** 
  40:.\source\rte/sc_speed.h **** /**
  41:.\source\rte/sc_speed.h ****  *  Definition of function types for driver interfaces.
  42:.\source\rte/sc_speed.h ****  *  O-Port
  43:.\source\rte/sc_speed.h ****  */
  44:.\source\rte/sc_speed.h **** typedef RC_t (*SC_SPEED_driverOut_t)( const SC_SPEED_data_t * const);
  45:.\source\rte/sc_speed.h **** 
  46:.\source\rte/sc_speed.h **** 
  47:.\source\rte/sc_speed.h **** /**************************************************************************************************
  48:.\source\rte/sc_speed.h **** /* The signal configuration API block																				*/
  49:.\source\rte/sc_speed.h **** /**************************************************************************************************
  50:.\source\rte/sc_speed.h **** 
  51:.\source\rte/sc_speed.h **** /**
  52:.\source\rte/sc_speed.h ****  * Instances of the struct SC_SPEED_cfg_t represent the signal object configuration.
  53:.\source\rte/sc_speed.h ****  */
  54:.\source\rte/sc_speed.h **** struct SC_SPEED_cfg_s
  55:.\source\rte/sc_speed.h **** {
  56:.\source\rte/sc_speed.h ****     /**
  57:.\source\rte/sc_speed.h ****      * Function pointer to the input driver
  58:.\source\rte/sc_speed.h ****      */
  59:.\source\rte/sc_speed.h ****     SC_SPEED_driverIn_t const inDriver;
  60:.\source\rte/sc_speed.h **** 
  61:.\source\rte/sc_speed.h ****     /**
  62:.\source\rte/sc_speed.h ****      * Function pointer to the output driver table
  63:.\source\rte/sc_speed.h ****      */
  64:.\source\rte/sc_speed.h ****    SC_SPEED_driverOut_t const outDriver;
  65:.\source\rte/sc_speed.h ****    
  66:.\source\rte/sc_speed.h ****     /**
  67:.\source\rte/sc_speed.h ****      * Event onUpdate
  68:.\source\rte/sc_speed.h ****      */
  69:.\source\rte/sc_speed.h ****     EventMaskType const evOnUpdate;
  70:.\source\rte/sc_speed.h ****     
  71:.\source\rte/sc_speed.h ****     
  72:.\source\rte/sc_speed.h ****     /**
ARM GAS  C:\Users\bolob\AppData\Local\Temp\ccgDU2SJ.s 			page 9


  73:.\source\rte/sc_speed.h ****      * Event onError
  74:.\source\rte/sc_speed.h ****      */
  75:.\source\rte/sc_speed.h ****     EventMaskType const evOnError;
  76:.\source\rte/sc_speed.h ****     
  77:.\source\rte/sc_speed.h ****     /**
  78:.\source\rte/sc_speed.h ****      * Task Count onUpdate
  79:.\source\rte/sc_speed.h ****      */
  80:.\source\rte/sc_speed.h ****     size_t const onUpdateTaskCount;
  81:.\source\rte/sc_speed.h **** 
  82:.\source\rte/sc_speed.h ****     /**
  83:.\source\rte/sc_speed.h ****      * Task List onUpdate
  84:.\source\rte/sc_speed.h ****      */
  85:.\source\rte/sc_speed.h ****     TaskTypeArray* const onUpdateTasks;
  86:.\source\rte/sc_speed.h ****     
  87:.\source\rte/sc_speed.h ****     /**
  88:.\source\rte/sc_speed.h ****      * Task Count onError
  89:.\source\rte/sc_speed.h ****      */
  90:.\source\rte/sc_speed.h ****     size_t const onErrorTaskCount;
  91:.\source\rte/sc_speed.h **** 
  92:.\source\rte/sc_speed.h ****     /**
  93:.\source\rte/sc_speed.h ****      * Task List onError
  94:.\source\rte/sc_speed.h ****      */
  95:.\source\rte/sc_speed.h ****     TaskTypeArray* const onErrorTasks;
  96:.\source\rte/sc_speed.h **** 	
  97:.\source\rte/sc_speed.h **** 	
  98:.\source\rte/sc_speed.h **** 	/**
  99:.\source\rte/sc_speed.h **** 	 * Ressourse is active? We need an additional boolean as a ressource value 0 is valid.
 100:.\source\rte/sc_speed.h **** 	 */
 101:.\source\rte/sc_speed.h **** 	 boolean_t const resourceActive;
 102:.\source\rte/sc_speed.h **** 	 
 103:.\source\rte/sc_speed.h **** 	/**
 104:.\source\rte/sc_speed.h **** 	 * Ressourse 
 105:.\source\rte/sc_speed.h **** 	 */
 106:.\source\rte/sc_speed.h **** 	 ResourceType const resource;
 107:.\source\rte/sc_speed.h **** 
 108:.\source\rte/sc_speed.h **** };                                                                                                 
 109:.\source\rte/sc_speed.h **** typedef const struct SC_SPEED_cfg_s SC_SPEED_cfg_t;
 110:.\source\rte/sc_speed.h ****                               
 111:.\source\rte/sc_speed.h **** /**************************************************************************************************
 112:.\source\rte/sc_speed.h **** /* The data interface block																							*/
 113:.\source\rte/sc_speed.h **** /**************************************************************************************************
 114:.\source\rte/sc_speed.h **** 
 115:.\source\rte/sc_speed.h ****                                                                                                    
 116:.\source\rte/sc_speed.h **** 							  
 117:.\source\rte/sc_speed.h **** /**
 118:.\source\rte/sc_speed.h ****  * Instances of the struct SC_SPEED_t represent the signal objects.
 119:.\source\rte/sc_speed.h ****  * A signal object contains the current application value 'value' as well as relevant meta data.
 120:.\source\rte/sc_speed.h ****  */
 121:.\source\rte/sc_speed.h **** struct SC_SPEED_s
 122:.\source\rte/sc_speed.h **** {                                                                                                  
 123:.\source\rte/sc_speed.h **** 
 124:.\source\rte/sc_speed.h **** 	/**
 125:.\source\rte/sc_speed.h **** 	 * Data buffer for the application value
 126:.\source\rte/sc_speed.h **** 	 */
 127:.\source\rte/sc_speed.h ****     SC_SPEED_data_t value;
 128:.\source\rte/sc_speed.h **** 
 129:.\source\rte/sc_speed.h ****     /**
ARM GAS  C:\Users\bolob\AppData\Local\Temp\ccgDU2SJ.s 			page 10


 130:.\source\rte/sc_speed.h ****      * Current signal status
 131:.\source\rte/sc_speed.h ****      */
 132:.\source\rte/sc_speed.h ****     RTE_signalStatus_t status;
 133:.\source\rte/sc_speed.h **** 
 134:.\source\rte/sc_speed.h ****     /**
 135:.\source\rte/sc_speed.h ****      * Current age of the signal (in calling cycles)
 136:.\source\rte/sc_speed.h ****      */
 137:.\source\rte/sc_speed.h ****     uint32_t age;
 138:.\source\rte/sc_speed.h **** 
 139:.\source\rte/sc_speed.h ****     /**
 140:.\source\rte/sc_speed.h ****      * Pointer to the signal configuration
 141:.\source\rte/sc_speed.h ****      */
 142:.\source\rte/sc_speed.h **** 	const SC_SPEED_cfg_t * const    pSigCfg;
 143:.\source\rte/sc_speed.h **** 
 144:.\source\rte/sc_speed.h **** };                                                                                                 
 145:.\source\rte/sc_speed.h **** typedef struct SC_SPEED_s SC_SPEED_t;
 146:.\source\rte/sc_speed.h **** 
 147:.\source\rte/sc_speed.h **** /**************************************************************************************************
 148:.\source\rte/sc_speed.h **** /* Signal initialisation   																							*/
 149:.\source\rte/sc_speed.h **** /**************************************************************************************************
 150:.\source\rte/sc_speed.h **** 
 151:.\source\rte/sc_speed.h **** /**
 152:.\source\rte/sc_speed.h ****  * Initializes a signal instance with a passed init value.
 153:.\source\rte/sc_speed.h ****  * Depending on the configured conversion or scaling function the raw_value will be calculated.
 154:.\source\rte/sc_speed.h ****  * Signal status will change from RTE_SIGNALSTATUS_STARTUP to RTE_SIGNALSTATUS_INITIALIZED.
 155:.\source\rte/sc_speed.h ****  *
 156:.\source\rte/sc_speed.h ****  * @param  SC_SPEED_t * const signal: Pointer to the signal object which will be initialised
 157:.\source\rte/sc_speed.h ****  * @return RC_t: standard return code, currently only RC_SUCCESS
 158:.\source\rte/sc_speed.h ****  *
 159:.\source\rte/sc_speed.h ****  **/
 160:.\source\rte/sc_speed.h **** inline RC_t RTE_SC_SPEED_init( SC_SPEED_t * const signal )
 161:.\source\rte/sc_speed.h **** {                                                                                                  
 162:.\source\rte/sc_speed.h **** 
 163:.\source\rte/sc_speed.h ****    RC_t ret = RC_SUCCESS;
 164:.\source\rte/sc_speed.h **** 
 165:.\source\rte/sc_speed.h ****    //Set value and raw value
 166:.\source\rte/sc_speed.h ****    signal->value  = SC_SPEED_INIT_DATA;
 167:.\source\rte/sc_speed.h ****    signal->age    = 0;
 168:.\source\rte/sc_speed.h ****    signal->status = RTE_SIGNALSTATUS_INITIALIZED;
 169:.\source\rte/sc_speed.h **** 
 170:.\source\rte/sc_speed.h ****    return ret;
 171:.\source\rte/sc_speed.h **** }
 172:.\source\rte/sc_speed.h **** 
 173:.\source\rte/sc_speed.h **** /**************************************************************************************************
 174:.\source\rte/sc_speed.h **** /* Status and timeout control																						*/
 175:.\source\rte/sc_speed.h **** /**************************************************************************************************
 176:.\source\rte/sc_speed.h **** 
 177:.\source\rte/sc_speed.h **** /**
 178:.\source\rte/sc_speed.h ****  *  Returns the current signal status of the passed signal instance.
 179:.\source\rte/sc_speed.h ****  *
 180:.\source\rte/sc_speed.h ****  * @param  SC_SPEED_t * const signal: Pointer to the signal object
 181:.\source\rte/sc_speed.h ****  * @return  sig_status_t: The current signal status
 182:.\source\rte/sc_speed.h ****  *
 183:.\source\rte/sc_speed.h ****  **/
 184:.\source\rte/sc_speed.h **** inline RTE_signalStatus_t RTE_SC_SPEED_getStatus( const SC_SPEED_t * const signal )
 185:.\source\rte/sc_speed.h **** {
 186:.\source\rte/sc_speed.h ****    return signal->status;
ARM GAS  C:\Users\bolob\AppData\Local\Temp\ccgDU2SJ.s 			page 11


 187:.\source\rte/sc_speed.h **** }
 188:.\source\rte/sc_speed.h **** 
 189:.\source\rte/sc_speed.h **** 
 190:.\source\rte/sc_speed.h **** /**
 191:.\source\rte/sc_speed.h ****  *  Sets a new signal status of the passed signal instance by passing the new status.
 192:.\source\rte/sc_speed.h ****  *
 193:.\source\rte/sc_speed.h ****  * @param  SC_SPEED_t * const signal: Pointer to the signal object
 194:.\source\rte/sc_speed.h ****  * @param  const sig_status_t status: New signal status
 195:.\source\rte/sc_speed.h ****  * @return RC_t: standard return code, currently only RC_SUCCESS
 196:.\source\rte/sc_speed.h ****  *
 197:.\source\rte/sc_speed.h ****  */
 198:.\source\rte/sc_speed.h **** inline RC_t RTE_SC_SPEED_setStatus( SC_SPEED_t * const signal, const RTE_signalStatus_t status )
 199:.\source\rte/sc_speed.h **** {
 200:.\source\rte/sc_speed.h ****    signal->status = status;
 201:.\source\rte/sc_speed.h ****    size_t taskNum=0;
 202:.\source\rte/sc_speed.h ****    
 203:.\source\rte/sc_speed.h ****    //Fire error events in case of invalid state
 204:.\source\rte/sc_speed.h ****    if (signal->status == RTE_SIGNALSTATUS_INVALID)
 205:.\source\rte/sc_speed.h ****    {
 206:.\source\rte/sc_speed.h **** 	    //Pointer to the Taskarray, containing the tasks receiving the onUpdate events
 207:.\source\rte/sc_speed.h **** 		TaskTypeArray* pTaskArray = signal->pSigCfg->onErrorTasks;
 208:.\source\rte/sc_speed.h **** 
 209:.\source\rte/sc_speed.h **** 		if (0 != signal->pSigCfg->evOnError && NULL != pTaskArray){
 210:.\source\rte/sc_speed.h **** 			for( taskNum=0 ; taskNum < signal->pSigCfg->onErrorTaskCount ;taskNum++){
 211:.\source\rte/sc_speed.h **** 				TaskType task = (*pTaskArray)[taskNum];
 212:.\source\rte/sc_speed.h **** 				SetEvent( task, signal->pSigCfg->evOnError);
 213:.\source\rte/sc_speed.h **** 			}
 214:.\source\rte/sc_speed.h **** 		}
 215:.\source\rte/sc_speed.h ****    }
 216:.\source\rte/sc_speed.h ****    
 217:.\source\rte/sc_speed.h ****    return RC_SUCCESS;
 218:.\source\rte/sc_speed.h **** }
 219:.\source\rte/sc_speed.h **** 
 220:.\source\rte/sc_speed.h **** 
 221:.\source\rte/sc_speed.h **** /**
 222:.\source\rte/sc_speed.h ****  * Returns the count of refreshing trials (refresh, set or set_raw) that failed.
 223:.\source\rte/sc_speed.h ****  * Prerquisite: The signal is refreshed cyclically
 224:.\source\rte/sc_speed.h ****  *
 225:.\source\rte/sc_speed.h ****  * @param  SC_SPEED_t * const signal: Pointer to the signal object
 226:.\source\rte/sc_speed.h ****  * @return uint32_t: Number of cycles since the signal has been updated for the last time
 227:.\source\rte/sc_speed.h ****  */
 228:.\source\rte/sc_speed.h **** inline uint32_t RTE_SC_SPEED_getAge( const SC_SPEED_t * const signal )
 229:.\source\rte/sc_speed.h **** {
 230:.\source\rte/sc_speed.h ****    return signal->age;
  59              		.loc 3 230 0
  60 0016 1A4B     		ldr	r3, .L10+4
  61 0018 5B68     		ldr	r3, [r3, #4]
  62              	.LVL4:
  63              	.LBE25:
  64              	.LBE24:
  50:source\asw/swc_output.c ****     
  51:source\asw/swc_output.c ****     SC_LED_data_t ledState;
  52:source\asw/swc_output.c ****     ledState = RTE_SC_LED_get(&SO_LED_signal);
  53:source\asw/swc_output.c ****     
  54:source\asw/swc_output.c ****     // Get the current age of the speed signal
  55:source\asw/swc_output.c ****     uint32_t speedAge = RTE_SC_SPEED_getAge(&SO_SPEED_signal);
  56:source\asw/swc_output.c ****     uint32_t maxSpeedAge = 1;
ARM GAS  C:\Users\bolob\AppData\Local\Temp\ccgDU2SJ.s 			page 12


  57:source\asw/swc_output.c ****     
  58:source\asw/swc_output.c ****     // If the speed signal is too old,
  59:source\asw/swc_output.c ****     if(speedAge > maxSpeedAge) {
  65              		.loc 1 59 0
  66 001a 012B     		cmp	r3, #1
  67 001c 03D9     		bls	.L2
  60:source\asw/swc_output.c ****         // the value 0 is written to the engine
  61:source\asw/swc_output.c ****             ledState.engineControlValue = 0;
  68              		.loc 1 61 0
  69 001e 0023     		movs	r3, #0
  70 0020 8DF80930 		strb	r3, [sp, #9]
  71 0024 03E0     		b	.L3
  72              	.L2:
  73              	.LVL5:
  62:source\asw/swc_output.c ****     } else {
  63:source\asw/swc_output.c ****         // otherwise get the recent speed signal, update the engine value
  64:source\asw/swc_output.c ****         ledState.engineControlValue = RTE_SC_SPEED_get(&SO_SPEED_signal).currentSpeed;  
  74              		.loc 1 64 0
  75 0026 164B     		ldr	r3, .L10+4
  76 0028 1B78     		ldrb	r3, [r3]	@ zero_extendqisi2
  77 002a 8DF80930 		strb	r3, [sp, #9]
  78              	.L3:
  79              	.LVL6:
  80 002e BDF80810 		ldrh	r1, [sp, #8]
  81 0032 ADF80410 		strh	r1, [sp, #4]	@ movhi
  82              	.LVL7:
  83              	.LBB26:
  84              	.LBB27:
 278:.\source\rte/sc_led.h **** }                                                                                                  
 279:.\source\rte/sc_led.h ****                                                                                                    
 280:.\source\rte/sc_led.h **** /**
 281:.\source\rte/sc_led.h ****  * Returns the current application value of the passed signal instance threadsafe.
 282:.\source\rte/sc_led.h ****  *
 283:.\source\rte/sc_led.h ****  * @param  SC_LED_t * const signal: Pointer to the signal object
 284:.\source\rte/sc_led.h ****  * @param  SC_LED_data_t* data: Pointer to the return data Pointer to the signal object
 285:.\source\rte/sc_led.h ****  * @return RC_SUCCESS
 286:.\source\rte/sc_led.h ****  *
 287:.\source\rte/sc_led.h ****  **/
 288:.\source\rte/sc_led.h **** inline RC_t RTE_SC_LED_getThreadSafe( const SC_LED_t * const signal, SC_LED_data_t * const data )
 289:.\source\rte/sc_led.h **** {    
 290:.\source\rte/sc_led.h ****    if (TRUE == signal->pSigCfg->resourceActive) GetResource(signal->pSigCfg->resource);
 291:.\source\rte/sc_led.h ****    *data = signal->value;
 292:.\source\rte/sc_led.h ****    if (TRUE == signal->pSigCfg->resourceActive) ReleaseResource(signal->pSigCfg->resource);        
 293:.\source\rte/sc_led.h **** 
 294:.\source\rte/sc_led.h ****    return RC_SUCCESS;                                                                   
 295:.\source\rte/sc_led.h ****    
 296:.\source\rte/sc_led.h **** }                                                                                                  
 297:.\source\rte/sc_led.h ****                                                                                                    
 298:.\source\rte/sc_led.h **** /**
 299:.\source\rte/sc_led.h ****  * Sets a new application value to the passed signal instance by passing the new value.
 300:.\source\rte/sc_led.h ****  * The corresponding driver raw value will be calculated immediately by using the default conversio
 301:.\source\rte/sc_led.h ****  * signal specific scaling function.
 302:.\source\rte/sc_led.h ****  * The signal age will be set to 0 and the new status will be 'RTE_SIGNALSTATUS_VALID'.
 303:.\source\rte/sc_led.h ****  *
 304:.\source\rte/sc_led.h ****  * @param  SC_LED_t * const signal: Pointer to the signal object
 305:.\source\rte/sc_led.h ****  * @param  sc_led_data_t const value: value for the application data buffer
 306:.\source\rte/sc_led.h ****  * @return RC_t: standard return code, currently only RC_SUCCESS
ARM GAS  C:\Users\bolob\AppData\Local\Temp\ccgDU2SJ.s 			page 13


 307:.\source\rte/sc_led.h ****  *
 308:.\source\rte/sc_led.h ****  **/
 309:.\source\rte/sc_led.h **** inline RC_t RTE_SC_LED_set(SC_LED_t * const signal, const SC_LED_data_t value  )
 310:.\source\rte/sc_led.h **** {
 311:.\source\rte/sc_led.h **** 
 312:.\source\rte/sc_led.h ****    RC_t ret = RC_SUCCESS;
 313:.\source\rte/sc_led.h ****    size_t taskNum=0;
 314:.\source\rte/sc_led.h **** 
 315:.\source\rte/sc_led.h **** 
 316:.\source\rte/sc_led.h ****    if (TRUE == signal->pSigCfg->resourceActive) GetResource(signal->pSigCfg->resource);
  85              		.loc 2 316 0
  86 0036 114B     		ldr	r3, .L10
  87 0038 9A68     		ldr	r2, [r3, #8]
 317:.\source\rte/sc_led.h ****    signal->value  = value;
  88              		.loc 2 317 0
  89 003a 1980     		strh	r1, [r3]	@ movhi
 318:.\source\rte/sc_led.h ****    signal->age    = 0;
  90              		.loc 2 318 0
  91 003c 0021     		movs	r1, #0
  92 003e 5960     		str	r1, [r3, #4]
 319:.\source\rte/sc_led.h ****    signal->status = RTE_SIGNALSTATUS_VALID;
  93              		.loc 2 319 0
  94 0040 0221     		movs	r1, #2
  95 0042 9970     		strb	r1, [r3, #2]
 320:.\source\rte/sc_led.h ****    if (TRUE == signal->pSigCfg->resourceActive) ReleaseResource(signal->pSigCfg->resource);
 321:.\source\rte/sc_led.h **** 
 322:.\source\rte/sc_led.h ****    //Pointer to the Taskarray, containing the tasks receiving the onUpdate events
 323:.\source\rte/sc_led.h ****    TaskTypeArray* pTaskArray = signal->pSigCfg->onUpdateTasks;
  96              		.loc 2 323 0
  97 0044 5569     		ldr	r5, [r2, #20]
  98              	.LVL8:
 324:.\source\rte/sc_led.h **** 
 325:.\source\rte/sc_led.h ****    if (0 != signal->pSigCfg->evOnUpdate && NULL != pTaskArray){
  99              		.loc 2 325 0
 100 0046 9368     		ldr	r3, [r2, #8]
 101 0048 73B1     		cbz	r3, .L4
 102 004a 3DB9     		cbnz	r5, .L8
 103 004c 0CE0     		b	.L4
 104              	.LVL9:
 105              	.L6:
 106              	.LBB28:
 326:.\source\rte/sc_led.h ****       for( taskNum=0 ; taskNum < signal->pSigCfg->onUpdateTaskCount ;taskNum++){
 327:.\source\rte/sc_led.h **** 		  
 328:.\source\rte/sc_led.h ****           TaskType task = (*pTaskArray)[taskNum];
 329:.\source\rte/sc_led.h **** 	      SetEvent( task, signal->pSigCfg->evOnUpdate);
 107              		.loc 2 329 0
 108 004e 9968     		ldr	r1, [r3, #8]
 109 0050 55F82400 		ldr	r0, [r5, r4, lsl #2]
 110 0054 FFF7FEFF 		bl	EE_oo_SetEvent
 111              	.LVL10:
 112              	.LBE28:
 326:.\source\rte/sc_led.h ****       for( taskNum=0 ; taskNum < signal->pSigCfg->onUpdateTaskCount ;taskNum++){
 113              		.loc 2 326 0
 114 0058 0134     		adds	r4, r4, #1
 115              	.LVL11:
 116 005a 00E0     		b	.L5
 117              	.LVL12:
ARM GAS  C:\Users\bolob\AppData\Local\Temp\ccgDU2SJ.s 			page 14


 118              	.L8:
 325:.\source\rte/sc_led.h ****       for( taskNum=0 ; taskNum < signal->pSigCfg->onUpdateTaskCount ;taskNum++){
 119              		.loc 2 325 0
 120 005c 0024     		movs	r4, #0
 121              	.LVL13:
 122              	.L5:
 326:.\source\rte/sc_led.h ****       for( taskNum=0 ; taskNum < signal->pSigCfg->onUpdateTaskCount ;taskNum++){
 123              		.loc 2 326 0
 124 005e 074B     		ldr	r3, .L10
 125 0060 9B68     		ldr	r3, [r3, #8]
 126 0062 1A69     		ldr	r2, [r3, #16]
 127 0064 9442     		cmp	r4, r2
 128 0066 F2D3     		bcc	.L6
 129              	.LVL14:
 130              	.L4:
 131              	.LBE27:
 132              	.LBE26:
 133              	.LBB29:
 134              	.LBB30:
 330:.\source\rte/sc_led.h ****       }
 331:.\source\rte/sc_led.h ****    }
 332:.\source\rte/sc_led.h **** 
 333:.\source\rte/sc_led.h ****    return ret;
 334:.\source\rte/sc_led.h **** }                                                                                                  
 335:.\source\rte/sc_led.h ****                                                                                                    
 336:.\source\rte/sc_led.h ****                                                                                                    
 337:.\source\rte/sc_led.h **** /**************************************************************************************************
 338:.\source\rte/sc_led.h **** /* Call functions to the connected drivers																			*/
 339:.\source\rte/sc_led.h **** /**************************************************************************************************
 340:.\source\rte/sc_led.h **** 
 341:.\source\rte/sc_led.h ****                                                                                                    
 342:.\source\rte/sc_led.h **** /**
 343:.\source\rte/sc_led.h ****  *  Calls the connected driver interface to get a new value.
 344:.\source\rte/sc_led.h ****  *
 345:.\source\rte/sc_led.h ****  * @param SC_LED_t * const signal: Pointer to the signal object
 346:.\source\rte/sc_led.h ****  * @return  RC_t: Return value of the driver call
 347:.\source\rte/sc_led.h ****  *
 348:.\source\rte/sc_led.h ****  */
 349:.\source\rte/sc_led.h **** inline RC_t RTE_SC_LED_pullPort( SC_LED_t * const signal )
 350:.\source\rte/sc_led.h **** {                                                                                                  
 351:.\source\rte/sc_led.h ****    RC_t ret = RC_SUCCESS;
 352:.\source\rte/sc_led.h **** 
 353:.\source\rte/sc_led.h ****                                                                                                    
 354:.\source\rte/sc_led.h ****    if ( NULL != signal->pSigCfg->inDriver )
 355:.\source\rte/sc_led.h ****    {
 356:.\source\rte/sc_led.h **** 	  SC_LED_data_t value = signal->value;
 357:.\source\rte/sc_led.h ****       ret = signal->pSigCfg->inDriver(&value);
 358:.\source\rte/sc_led.h ****                                                                                                    
 359:.\source\rte/sc_led.h ****       if ( ret == RC_SUCCESS )                                                                     
 360:.\source\rte/sc_led.h ****       {
 361:.\source\rte/sc_led.h ****     	  //Critical Section
 362:.\source\rte/sc_led.h ****     	  RTE_SC_LED_set(signal, value);
 363:.\source\rte/sc_led.h ****       }
 364:.\source\rte/sc_led.h ****       else
 365:.\source\rte/sc_led.h ****       {
 366:.\source\rte/sc_led.h **** 		  //Signal is invalid. Error event (if present) will be fired
 367:.\source\rte/sc_led.h **** 		  RTE_SC_LED_setStatus(signal, RTE_SIGNALSTATUS_INVALID);
ARM GAS  C:\Users\bolob\AppData\Local\Temp\ccgDU2SJ.s 			page 15


 368:.\source\rte/sc_led.h ****       }
 369:.\source\rte/sc_led.h **** 
 370:.\source\rte/sc_led.h ****    }                                                                                               
 371:.\source\rte/sc_led.h ****                                                                                                    
 372:.\source\rte/sc_led.h ****    return ret;                                                                                     
 373:.\source\rte/sc_led.h **** }                                                                                                  
 374:.\source\rte/sc_led.h ****                                                                                                    
 375:.\source\rte/sc_led.h **** /**
 376:.\source\rte/sc_led.h ****  *  Calls the connected driver interfaces to send a value. Value will not be sent if it is INVALID.
 377:.\source\rte/sc_led.h ****  *
 378:.\source\rte/sc_led.h ****  * @param SC_LED_t * const signal: Pointer to the signal object
 379:.\source\rte/sc_led.h ****  * @return  RC_t: Return value of the driver call
 380:.\source\rte/sc_led.h ****  *
 381:.\source\rte/sc_led.h ****  **/
 382:.\source\rte/sc_led.h **** inline RC_t RTE_SC_LED_pushPort( const SC_LED_t * const signal )
 383:.\source\rte/sc_led.h **** {                                                                                                  
 384:.\source\rte/sc_led.h ****    RC_t ret = RC_ERROR;
 385:.\source\rte/sc_led.h **** 
 386:.\source\rte/sc_led.h ****    if (RTE_SIGNALSTATUS_VALID == signal->status)
 135              		.loc 2 386 0
 136 0068 044B     		ldr	r3, .L10
 137 006a 9B78     		ldrb	r3, [r3, #2]	@ zero_extendqisi2
 138 006c 022B     		cmp	r3, #2
 139 006e 03D1     		bne	.L1
 387:.\source\rte/sc_led.h ****    {
 388:.\source\rte/sc_led.h **** 	   ret = signal->pSigCfg->outDriver(&(signal->value));
 140              		.loc 2 388 0
 141 0070 0248     		ldr	r0, .L10
 142 0072 8368     		ldr	r3, [r0, #8]
 143 0074 5B68     		ldr	r3, [r3, #4]
 144 0076 9847     		blx	r3
 145              	.LVL15:
 146              	.L1:
 147              	.LBE30:
 148              	.LBE29:
  65:source\asw/swc_output.c ****     }
  66:source\asw/swc_output.c ****     
  67:source\asw/swc_output.c ****     // update the LED driver
  68:source\asw/swc_output.c ****     RTE_SC_LED_set(&SO_LED_signal, ledState);
  69:source\asw/swc_output.c ****     RTE_SC_LED_pushPort(&SO_LED_signal);
  70:source\asw/swc_output.c **** 
  71:source\asw/swc_output.c ****     /* USER CODE END OUTPUT_setEngine_run */
  72:source\asw/swc_output.c **** }
 149              		.loc 1 72 0
 150 0078 05B0     		add	sp, sp, #20
 151              		.cfi_def_cfa_offset 12
 152              		@ sp needed
 153 007a 30BD     		pop	{r4, r5, pc}
 154              	.L11:
 155              		.align	2
 156              	.L10:
 157 007c 00000000 		.word	SO_LED_signal
 158 0080 00000000 		.word	SO_SPEED_signal
 159              		.cfi_endproc
 160              	.LFE143:
 161              		.size	OUTPUT_setEngine_run, .-OUTPUT_setEngine_run
 162              		.section	.text.OUTPUT_setBrakeLight_run,"ax",%progbits
ARM GAS  C:\Users\bolob\AppData\Local\Temp\ccgDU2SJ.s 			page 16


 163              		.align	2
 164              		.global	OUTPUT_setBrakeLight_run
 165              		.thumb
 166              		.thumb_func
 167              		.type	OUTPUT_setBrakeLight_run, %function
 168              	OUTPUT_setBrakeLight_run:
 169              	.LFB144:
  73:source\asw/swc_output.c **** 
  74:source\asw/swc_output.c **** /*
  75:source\asw/swc_output.c ****  * component: swc_output
  76:source\asw/swc_output.c ****  * cycletime: 0
  77:source\asw/swc_output.c ****  * description: Checks the speed value when updated.
  78:source\asw/swc_output.c ****  * events: ev_speed_onUpdate
  79:source\asw/swc_output.c ****  * name: OUTPUT_setBrakeLight_run
  80:source\asw/swc_output.c ****  * shortname: setBrakeLight
  81:source\asw/swc_output.c ****  * signalIN: so_speed
  82:source\asw/swc_output.c ****  * signalOUT: 
  83:source\asw/swc_output.c ****  * task: tsk_io
  84:source\asw/swc_output.c ****  */
  85:source\asw/swc_output.c **** void OUTPUT_setBrakeLight_run(RTE_event ev){
 170              		.loc 1 85 0
 171              		.cfi_startproc
 172              		@ args = 0, pretend = 0, frame = 16
 173              		@ frame_needed = 0, uses_anonymous_args = 0
 174              	.LVL16:
 175 0000 30B5     		push	{r4, r5, lr}
 176              		.cfi_def_cfa_offset 12
 177              		.cfi_offset 4, -12
 178              		.cfi_offset 5, -8
 179              		.cfi_offset 14, -4
 180 0002 85B0     		sub	sp, sp, #20
 181              		.cfi_def_cfa_offset 32
  86:source\asw/swc_output.c **** 	
  87:source\asw/swc_output.c **** 	/* USER CODE START OUTPUT_setBrakeLight_run */
  88:source\asw/swc_output.c ****     
  89:source\asw/swc_output.c ****     // Notify that the tak has been called
  90:source\asw/swc_output.c ****     WD_Alive(WDT_MASK_RUN_SETBRAKELIGHT);
 182              		.loc 1 90 0
 183 0004 0820     		movs	r0, #8
 184              	.LVL17:
 185 0006 FFF7FEFF 		bl	WD_Alive
 186              	.LVL18:
 187              	.LBB31:
 188              	.LBB32:
 231:.\source\rte/sc_speed.h **** }
 232:.\source\rte/sc_speed.h **** 
 233:.\source\rte/sc_speed.h **** /**
 234:.\source\rte/sc_speed.h ****  * Should be called by application or driver if no new value can be provided.
 235:.\source\rte/sc_speed.h ****  * @param  SC_SPEED_t * const signal: Pointer to the signal object
 236:.\source\rte/sc_speed.h ****  * @param uint32_t increment: incrementvalue, typically in [ms]
 237:.\source\rte/sc_speed.h ****  * @return void
 238:.\source\rte/sc_speed.h ****  */
 239:.\source\rte/sc_speed.h **** inline void RTE_SC_SPEED_incAge(  SC_SPEED_t * const signal , uint32_t increment)
 240:.\source\rte/sc_speed.h **** {
 241:.\source\rte/sc_speed.h **** 	   //Hack....
 242:.\source\rte/sc_speed.h **** 	   if ( 0xFFFF0000 > (signal->age + increment) )
 243:.\source\rte/sc_speed.h **** 	   {
ARM GAS  C:\Users\bolob\AppData\Local\Temp\ccgDU2SJ.s 			page 17


 244:.\source\rte/sc_speed.h **** 	      signal->age += increment;
 245:.\source\rte/sc_speed.h **** 	   }
 246:.\source\rte/sc_speed.h **** }
 247:.\source\rte/sc_speed.h **** 
 248:.\source\rte/sc_speed.h **** 
 249:.\source\rte/sc_speed.h **** /**************************************************************************************************
 250:.\source\rte/sc_speed.h **** /* Application Data read/write Interface																			*/
 251:.\source\rte/sc_speed.h **** /**************************************************************************************************
 252:.\source\rte/sc_speed.h **** 
 253:.\source\rte/sc_speed.h **** /**
 254:.\source\rte/sc_speed.h ****  * Returns the current application value as pointer to the signal payload.
 255:.\source\rte/sc_speed.h ****  * Careful: This is not threadsafe!!!
 256:.\source\rte/sc_speed.h ****  *
 257:.\source\rte/sc_speed.h ****  * @param  SC_SPEED_t * const signal: Pointer to the signal object
 258:.\source\rte/sc_speed.h ****  * @return sc_speed_data_t*: pointer to the current value of the application data buffer
 259:.\source\rte/sc_speed.h ****  *
 260:.\source\rte/sc_speed.h ****  **/
 261:.\source\rte/sc_speed.h **** inline SC_SPEED_data_t* RTE_SC_SPEED_getPtr( SC_SPEED_t * const signal )
 262:.\source\rte/sc_speed.h **** {               
 263:.\source\rte/sc_speed.h ****    //Todo: Critical region cannot be protected using return values																						
 264:.\source\rte/sc_speed.h ****    return &(signal->value);                                                                        
 265:.\source\rte/sc_speed.h **** }
 266:.\source\rte/sc_speed.h **** 
 267:.\source\rte/sc_speed.h **** /**
 268:.\source\rte/sc_speed.h ****  * Returns the current application value of the passed signal instance.
 269:.\source\rte/sc_speed.h ****  *
 270:.\source\rte/sc_speed.h ****  * @param  SC_SPEED_t * const signal: Pointer to the signal object
 271:.\source\rte/sc_speed.h ****  * @return sc_speed_data_t: current value of the application data buffer
 272:.\source\rte/sc_speed.h ****  *
 273:.\source\rte/sc_speed.h ****  **/
 274:.\source\rte/sc_speed.h **** inline SC_SPEED_data_t RTE_SC_SPEED_get( const SC_SPEED_t * const signal )
 275:.\source\rte/sc_speed.h **** {               
 276:.\source\rte/sc_speed.h ****    //Todo: Critical region cannot be protected using return values																						
 277:.\source\rte/sc_speed.h ****    return signal->value;                                                                           
 189              		.loc 3 277 0
 190 000a 1C4B     		ldr	r3, .L21
 191 000c 1A78     		ldrb	r2, [r3]	@ zero_extendqisi2
 192              	.LVL19:
 193              	.LBE32:
 194              	.LBE31:
 195              	.LBB33:
 196              	.LBB34:
 277:.\source\rte/sc_led.h **** }                                                                                                  
 197              		.loc 2 277 0
 198 000e 1C4B     		ldr	r3, .L21+4
 199 0010 1B88     		ldrh	r3, [r3]
 200 0012 ADF80C30 		strh	r3, [sp, #12]	@ movhi
 201 0016 ADF80830 		strh	r3, [sp, #8]	@ movhi
 202              	.LVL20:
 203              	.LBE34:
 204              	.LBE33:
  91:source\asw/swc_output.c ****     
  92:source\asw/swc_output.c ****     // get the current speed value
  93:source\asw/swc_output.c ****     SC_SPEED_data_t speedData;
  94:source\asw/swc_output.c ****     speedData = RTE_SC_SPEED_get(&SO_SPEED_signal);
  95:source\asw/swc_output.c ****     
  96:source\asw/swc_output.c ****     // get the current values for the LED drive
ARM GAS  C:\Users\bolob\AppData\Local\Temp\ccgDU2SJ.s 			page 18


  97:source\asw/swc_output.c ****     SC_LED_data_t ledState;
  98:source\asw/swc_output.c ****     ledState = RTE_SC_LED_get(&SO_LED_signal);
  99:source\asw/swc_output.c ****     
 100:source\asw/swc_output.c ****     // If the speed value is 0,
 101:source\asw/swc_output.c ****     if(speedData.currentSpeed == 0) {
 205              		.loc 1 101 0
 206 001a 12F0FF0F 		tst	r2, #255
 207 001e 03D1     		bne	.L13
 102:source\asw/swc_output.c ****         // the signal brakeLight will be turned on
 103:source\asw/swc_output.c ****         ledState.brakeLight = TRUE;
 208              		.loc 1 103 0
 209 0020 0123     		movs	r3, #1
 210 0022 8DF80830 		strb	r3, [sp, #8]
 211 0026 02E0     		b	.L14
 212              	.L13:
 104:source\asw/swc_output.c ****     } else {
 105:source\asw/swc_output.c ****         //otherwise it will be turned off
 106:source\asw/swc_output.c ****         ledState.brakeLight = FALSE;
 213              		.loc 1 106 0
 214 0028 0023     		movs	r3, #0
 215 002a 8DF80830 		strb	r3, [sp, #8]
 216              	.L14:
 217              	.LVL21:
 218 002e BDF80810 		ldrh	r1, [sp, #8]
 219 0032 ADF80410 		strh	r1, [sp, #4]	@ movhi
 220              	.LVL22:
 221              	.LBB35:
 222              	.LBB36:
 316:.\source\rte/sc_led.h ****    signal->value  = value;
 223              		.loc 2 316 0
 224 0036 124B     		ldr	r3, .L21+4
 225 0038 9A68     		ldr	r2, [r3, #8]
 317:.\source\rte/sc_led.h ****    signal->age    = 0;
 226              		.loc 2 317 0
 227 003a 1980     		strh	r1, [r3]	@ movhi
 318:.\source\rte/sc_led.h ****    signal->status = RTE_SIGNALSTATUS_VALID;
 228              		.loc 2 318 0
 229 003c 0021     		movs	r1, #0
 230 003e 5960     		str	r1, [r3, #4]
 319:.\source\rte/sc_led.h ****    if (TRUE == signal->pSigCfg->resourceActive) ReleaseResource(signal->pSigCfg->resource);
 231              		.loc 2 319 0
 232 0040 0221     		movs	r1, #2
 233 0042 9970     		strb	r1, [r3, #2]
 323:.\source\rte/sc_led.h **** 
 234              		.loc 2 323 0
 235 0044 5569     		ldr	r5, [r2, #20]
 236              	.LVL23:
 325:.\source\rte/sc_led.h ****       for( taskNum=0 ; taskNum < signal->pSigCfg->onUpdateTaskCount ;taskNum++){
 237              		.loc 2 325 0
 238 0046 9368     		ldr	r3, [r2, #8]
 239 0048 73B1     		cbz	r3, .L15
 240 004a 3DB9     		cbnz	r5, .L19
 241 004c 0CE0     		b	.L15
 242              	.LVL24:
 243              	.L17:
 244              	.LBB37:
 329:.\source\rte/sc_led.h ****       }
ARM GAS  C:\Users\bolob\AppData\Local\Temp\ccgDU2SJ.s 			page 19


 245              		.loc 2 329 0
 246 004e 9968     		ldr	r1, [r3, #8]
 247 0050 55F82400 		ldr	r0, [r5, r4, lsl #2]
 248 0054 FFF7FEFF 		bl	EE_oo_SetEvent
 249              	.LVL25:
 250              	.LBE37:
 326:.\source\rte/sc_led.h **** 		  
 251              		.loc 2 326 0
 252 0058 0134     		adds	r4, r4, #1
 253              	.LVL26:
 254 005a 00E0     		b	.L16
 255              	.LVL27:
 256              	.L19:
 325:.\source\rte/sc_led.h ****       for( taskNum=0 ; taskNum < signal->pSigCfg->onUpdateTaskCount ;taskNum++){
 257              		.loc 2 325 0
 258 005c 0024     		movs	r4, #0
 259              	.LVL28:
 260              	.L16:
 326:.\source\rte/sc_led.h **** 		  
 261              		.loc 2 326 0
 262 005e 084B     		ldr	r3, .L21+4
 263 0060 9B68     		ldr	r3, [r3, #8]
 264 0062 1A69     		ldr	r2, [r3, #16]
 265 0064 9442     		cmp	r4, r2
 266 0066 F2D3     		bcc	.L17
 267              	.LVL29:
 268              	.L15:
 269              	.LBE36:
 270              	.LBE35:
 271              	.LBB38:
 272              	.LBB39:
 386:.\source\rte/sc_led.h ****    {
 273              		.loc 2 386 0
 274 0068 054B     		ldr	r3, .L21+4
 275 006a 9B78     		ldrb	r3, [r3, #2]	@ zero_extendqisi2
 276 006c 022B     		cmp	r3, #2
 277 006e 03D1     		bne	.L12
 278              		.loc 2 388 0
 279 0070 0348     		ldr	r0, .L21+4
 280 0072 8368     		ldr	r3, [r0, #8]
 281 0074 5B68     		ldr	r3, [r3, #4]
 282 0076 9847     		blx	r3
 283              	.LVL30:
 284              	.L12:
 285              	.LBE39:
 286              	.LBE38:
 107:source\asw/swc_output.c ****     }
 108:source\asw/swc_output.c ****     
 109:source\asw/swc_output.c ****     // update the LED driver
 110:source\asw/swc_output.c ****     RTE_SC_LED_set(&SO_LED_signal, ledState);
 111:source\asw/swc_output.c ****     RTE_SC_LED_pushPort(&SO_LED_signal);
 112:source\asw/swc_output.c ****     
 113:source\asw/swc_output.c ****     /* USER CODE END OUTPUT_setBrakeLight_run */
 114:source\asw/swc_output.c **** }
 287              		.loc 1 114 0
 288 0078 05B0     		add	sp, sp, #20
 289              		.cfi_def_cfa_offset 12
ARM GAS  C:\Users\bolob\AppData\Local\Temp\ccgDU2SJ.s 			page 20


 290              		@ sp needed
 291 007a 30BD     		pop	{r4, r5, pc}
 292              	.L22:
 293              		.align	2
 294              	.L21:
 295 007c 00000000 		.word	SO_SPEED_signal
 296 0080 00000000 		.word	SO_LED_signal
 297              		.cfi_endproc
 298              	.LFE144:
 299              		.size	OUTPUT_setBrakeLight_run, .-OUTPUT_setBrakeLight_run
 300              		.text
 301              	.Letext0:
 302              		.file 4 "c:\\program files (x86)\\cypress\\psoc creator\\4.4\\psoc creator\\import\\gnu\\arm\\5.4.
 303              		.file 5 "c:\\program files (x86)\\cypress\\psoc creator\\4.4\\psoc creator\\import\\gnu\\arm\\5.4.
 304              		.file 6 "c:\\program files (x86)\\cypress\\psoc creator\\4.4\\psoc creator\\import\\gnu\\arm\\5.4.
 305              		.file 7 "Generated_Source\\PSoC5/ErikaOS_1_common_ee_types.inc"
 306              		.file 8 "Generated_Source\\PSoC5/ErikaOS_1_cortex_mx_ee_cpu.inc"
 307              		.file 9 "Generated_Source\\PSoC5/ErikaOS_1_ee_oo_common.inc"
 308              		.file 10 ".\\source\\bsw/global.h"
 309              		.file 11 ".\\source\\rte/rte_types.h"
 310              		.file 12 ".\\source\\rte/rte.h"
 311              		.file 13 ".\\source\\rte/sc_speed_type.h"
 312              		.file 14 ".\\source\\rte/sc_led_type.h"
 313              		.file 15 "Generated_Source\\PSoC5/ErikaOS_1_ee_oo_intfunc.inc"
 314              		.file 16 "Generated_Source\\PSoC5/ErikaOS_1_cortex_mx_ee_context.inc"
 315              		.file 17 "Generated_Source\\PSoC5/ErikaOS_1_common_ee_primitives.inc"
 316              		.file 18 "Generated_Source\\PSoC5/core_cm3.h"
 317              		.file 19 ".\\source\\rte/sp_common.h"
 318              		.file 20 "Generated_Source\\PSoC5/ErikaOS_1_ee_oo_kernel.inc"
 319              		.file 21 "./watchdog.h"